(dp0
Vkevin
p1
(lp2
V0000000000000000
p3
asVhannon
p4
(lp5
V0000000000000000
p6
asVjim
p7
(lp8
V0000000000000000
p9
asVhughes
p10
(lp11
V0000000000000000
p12
asVjohn
p13
(lp14
V0000000000000000
p15
aV0000000000000068
p16
aV0000000000000078
p17
aV0000000000000099
p18
asVlavorato
p19
(lp20
V0000000000000000
p21
asVefforts
p22
(lp23
V0000000000000000
p24
asVmove
p25
(lp26
V0000000000000000
p27
asVsouth
p28
(lp29
V0000000000000000
p30
aV0000000000000003
p31
aV0000000000000008
p32
asVamerican
p33
(lp34
V0000000000000000
p35
aV0000000000000008
p36
asVmerchant
p37
(lp38
V0000000000000000
p39
asVbusiness
p40
(lp41
V0000000000000000
p42
aV0000000000000030
p43
aV0000000000000122
p44
asVmodel
p45
(lp46
V0000000000000000
p47
aV0000000000000001
p48
aV0000000000000004
p49
aV0000000000000009
p50
aV0000000000000108
p51
asVlook
p52
(lp53
V0000000000000000
p54
aV0000000000000022
p55
aV0000000000000025
p56
asVlike
p57
(lp58
V0000000000000000
p59
aV0000000000000002
p60
aV0000000000000005
p61
aV0000000000000008
p62
aV0000000000000122
p63
asVnorth
p64
(lp65
V0000000000000000
p66
asVeuropean
p67
(lp68
V0000000000000000
p69
asVmodels
p70
(lp71
V0000000000000000
p72
asVevolving
p73
(lp74
V0000000000000000
p75
asVquickly
p76
(lp77
V0000000000000000
p78
asVvolatile
p79
(lp80
V0000000000000000
p81
asVbrazilian
p82
(lp83
V0000000000000000
p84
aV0000000000000001
p85
asVpower
p86
(lp87
V0000000000000000
p88
aV0000000000000001
p89
aV0000000000000003
p90
aV0000000000000007
p91
aV0000000000000012
p92
aV0000000000000048
p93
aV0000000000000052
p94
aV0000000000000122
p95
asVmarket
p96
(lp97
V0000000000000000
p98
aV0000000000000001
p99
aV0000000000000010
p100
aV0000000000000019
p101
asVenron
p102
(lp103
V0000000000000000
p104
aV0000000000000001
p105
aV0000000000000023
p106
aV0000000000000024
p107
aV0000000000000026
p108
aV0000000000000027
p109
aV0000000000000028
p110
aV0000000000000095
p111
asVpoised
p112
(lp113
V0000000000000000
p114
asVstart
p115
(lp116
V0000000000000000
p117
aV0000000000000023
p118
aV0000000000000034
p119
aV0000000000000069
p120
asVfirst
p121
(lp122
V0000000000000000
p123
aV0000000000000001
p124
aV0000000000000020
p125
asVplant
p126
(lp127
V0000000000000000
p128
aV0000000000000003
p129
aV0000000000000012
p130
asVnear
p131
(lp132
V0000000000000000
p133
aV0000000000000002
p134
aV0000000000000008
p135
asVfuture
p136
(lp137
V0000000000000000
p138
aV0000000000000013
p139
asVworking
p140
(lp141
V0000000000000000
p142
aV0000000000000095
p143
aV0000000000000122
p144
asVseveral
p145
(lp146
V0000000000000000
p147
asVstructured
p148
(lp149
V0000000000000000
p150
asVtransactions
p151
(lp152
V0000000000000000
p153
aV0000000000000008
p154
asVforefront
p155
(lp156
V0000000000000000
p157
asVregulators
p158
(lp159
V0000000000000000
p160
asVcreate
p161
(lp162
V0000000000000000
p163
asVviable
p164
(lp165
V0000000000000000
p166
asVderegulated
p167
(lp168
V0000000000000000
p169
asVcontinue
p170
(lp171
V0000000000000000
p172
asVpositive
p173
(lp174
V0000000000000000
p175
asVmomentum
p176
(lp177
V0000000000000000
p178
asVamerica
p179
(lp180
V0000000000000000
p181
aV0000000000000003
p182
aV0000000000000008
p183
asVdecided
p184
(lp185
V0000000000000000
p186
asVchange
p187
(lp188
V0000000000000000
p189
aV0000000000000017
p190
aV0000000000000020
p191
aV0000000000000027
p192
aV0000000000000028
p193
asVleadership
p194
(lp195
V0000000000000000
p196
aV0000000000000025
p197
asVasked
p198
(lp199
V0000000000000000
p200
aV0000000000000001
p201
aV0000000000000015
p202
asVorlando
p203
(lp204
V0000000000000000
p205
asVgonzalez
p206
(lp207
V0000000000000000
p208
asVbecome
p209
(lp210
V0000000000000000
p211
asVpresident
p212
(lp213
V0000000000000000
p214
asVceo
p215
(lp216
V0000000000000000
p217
asVaddition
p218
(lp219
V0000000000000000
p220
asVbrett
p221
(lp222
V0000000000000000
p223
aV0000000000000001
p224
asVwiggs
p225
(lp226
V0000000000000000
p227
asVjoin
p228
(lp229
V0000000000000000
p230
asVoffice
p231
(lp232
V0000000000000000
p233
aV0000000000000015
p234
aV0000000000000024
p235
aV0000000000000118
p236
aV0000000000000120
p237
aV0000000000000121
p238
asVchairman
p239
(lp240
V0000000000000000
p241
aV0000000000000025
p242
asVchief
p243
(lp244
V0000000000000000
p245
asVcommercial
p246
(lp247
V0000000000000000
p248
aV0000000000000008
p249
asVofficer
p250
(lp251
V0000000000000000
p252
asVjoe
p253
(lp254
V0000000000000000
p255
asVkishkill
p256
(lp257
V0000000000000000
p258
aV0000000000000001
p259
asVinvolved
p260
(lp261
V0000000000000000
p262
asVmany
p263
(lp264
V0000000000000000
p265
asVyears
p266
(lp267
V0000000000000000
p268
asVexploring
p269
(lp270
V0000000000000000
p271
asVopportunities
p272
(lp273
V0000000000000000
p274
asVwithin
p275
(lp276
V0000000000000000
p277
asVwould
p278
(lp279
V0000000000000000
p280
aV0000000000000005
p281
aV0000000000000008
p282
aV0000000000000012
p283
aV0000000000000122
p284
asVthank
p285
(lp286
V0000000000000000
p287
aV0000000000000015
p288
aV0000000000000023
p289
aV0000000000000025
p290
aV0000000000000026
p291
aV0000000000000027
p292
aV0000000000000028
p293
aV0000000000000029
p294
aV0000000000000030
p295
asVcontributions
p296
(lp297
V0000000000000000
p298
asVplease
p299
(lp300
V0000000000000000
p301
aV0000000000000001
p302
aV0000000000000005
p303
aV0000000000000011
p304
aV0000000000000012
p305
aV0000000000000013
p306
aV0000000000000015
p307
aV0000000000000019
p308
aV0000000000000020
p309
aV0000000000000022
p310
aV0000000000000024
p311
aV0000000000000026
p312
aV0000000000000029
p313
aV0000000000000030
p314
aV0000000000000051
p315
aV0000000000000082
p316
asVus
p317
(lp318
V0000000000000000
p319
aV0000000000000002
p320
aV0000000000000005
p321
aV0000000000000008
p322
aV0000000000000012
p323
aV0000000000000025
p324
aV0000000000000030
p325
aV0000000000000101
p326
aV0000000000000118
p327
aV0000000000000119
p328
aV0000000000000121
p329
aV0000000000000122
p330
asVnew
p331
(lp332
V0000000000000000
p333
aV0000000000000025
p334
asVduties
p335
(lp336
V0000000000000000
p337
asVdeal
p338
(lp339
V0000000000000001
p340
aV0000000000000002
p341
aV0000000000000008
p342
aV0000000000000012
p343
aV0000000000000019
p344
asVpurchase
p345
(lp346
V0000000000000001
p347
aV0000000000000005
p348
aV0000000000000012
p349
asVrestricted
p350
(lp351
V0000000000000001
p352
asVcertificates
p353
(lp354
V0000000000000001
p355
asVthink
p356
(lp357
V0000000000000001
p358
aV0000000000000005
p359
aV0000000000000012
p360
aV0000000000000101
p361
asVsimilar
p362
(lp363
V0000000000000001
p364
asVpollution
p365
(lp366
V0000000000000001
p367
asVcredits
p368
(lp369
V0000000000000001
p370
asVbrazil
p371
(lp372
V0000000000000001
p373
aV0000000000000003
p374
aV0000000000000005
p375
aV0000000000000007
p376
aV0000000000000010
p377
asVcrisis
p378
(lp379
V0000000000000001
p380
asVworse
p381
(lp382
V0000000000000001
p383
asVcalifornia
p384
(lp385
V0000000000000001
p386
aV0000000000000093
p387
asVlarge
p388
(lp389
V0000000000000001
p390
asVend
p391
(lp392
V0000000000000001
p393
aV0000000000000002
p394
aV0000000000000008
p395
aV0000000000000010
p396
aV0000000000000023
p397
asVusers
p398
(lp399
V0000000000000001
p400
asVrequired
p401
(lp402
V0000000000000001
p403
aV0000000000000028
p404
asVreduce
p405
(lp406
V0000000000000001
p407
aV0000000000000005
p408
asVconsumption
p409
(lp410
V0000000000000001
p411
asVlast
p412
(lp413
V0000000000000001
p414
asVyear
p415
(lp416
V0000000000000001
p417
asVusage
p418
(lp419
V0000000000000001
p420
asVunderstanding
p421
(lp422
V0000000000000001
p423
asVexample
p424
(lp425
V0000000000000001
p426
asVjuly
p427
(lp428
V0000000000000001
p429
aV0000000000000118
p430
aV0000000000000119
p431
aV0000000000000121
p432
aV0000000000000122
p433
asVmust
p434
(lp435
V0000000000000001
p436
aV0000000000000028
p437
aV0000000000000117
p438
asVless
p439
(lp440
V0000000000000001
p441
asVconsumer
p442
(lp443
V0000000000000001
p444
asVlowers
p445
(lp446
V0000000000000001
p447
asVsell
p448
(lp449
V0000000000000001
p450
aV0000000000000017
p451
asVexcess
p452
(lp453
V0000000000000001
p454
asVreduction
p455
(lp456
V0000000000000001
p457
aV0000000000000005
p458
asVanother
p459
(lp460
V0000000000000001
p461
asVuser
p462
(lp463
V0000000000000001
p464
asVmarketer
p465
(lp466
V0000000000000001
p467
asVcalled
p468
(lp469
V0000000000000001
p470
asVcertificate
p471
(lp472
V0000000000000001
p473
asVcopy
p474
(lp475
V0000000000000001
p476
aV0000000000000005
p477
aV0000000000000020
p478
asVvaluation
p479
(lp480
V0000000000000001
p481
asVrequested
p482
(lp483
V0000000000000001
p484
aV0000000000000005
p485
aV0000000000000015
p486
aV0000000000000024
p487
asVcomplete
p488
(lp489
V0000000000000001
p490
asVmartha
p491
(lp492
V0000000000000001
p493
aV0000000000000002
p494
aV0000000000000004
p495
aV0000000000000005
p496
aV0000000000000007
p497
aV0000000000000008
p498
aV0000000000000009
p499
aV0000000000000011
p500
aV0000000000000012
p501
asVsee
p502
(lp503
V0000000000000001
p504
asVattached
p505
(lp506
V0000000000000001
p507
aV0000000000000004
p508
aV0000000000000009
p509
aV0000000000000019
p510
aV0000000000000020
p511
aV0000000000000022
p512
asVdash
p513
(lp514
V0000000000000001
p515
asVneed
p516
(lp517
V0000000000000001
p518
aV0000000000000029
p519
aV0000000000000101
p520
asVaccrual
p521
(lp522
V0000000000000001
p523
aV0000000000000003
p524
aV0000000000000004
p525
aV0000000000000012
p526
asValso
p527
(lp528
V0000000000000001
p529
aV0000000000000002
p530
aV0000000000000008
p531
asVmtm
p532
(lp533
V0000000000000001
p534
aV0000000000000002
p535
aV0000000000000005
p536
aV0000000000000008
p537
aV0000000000000012
p538
asVll
p539
(lp540
V0000000000000001
p541
aV0000000000000002
p542
aV0000000000000008
p543
asVsend
p544
(lp545
V0000000000000001
p546
aV0000000000000030
p547
asViof
p548
(lp549
V0000000000000001
p550
aV0000000000000004
p551
asVrate
p552
(lp553
V0000000000000001
p554
aV0000000000000017
p555
aV0000000000000026
p556
aV0000000000000027
p557
aV0000000000000028
p558
asVsoon
p559
(lp560
V0000000000000001
p561
asVthanks
p562
(lp563
V0000000000000001
p564
aV0000000000000002
p565
aV0000000000000005
p566
aV0000000000000008
p567
aV0000000000000011
p568
aV0000000000000019
p569
aV0000000000000024
p570
aV0000000000000026
p571
aV0000000000000030
p572
aV0000000000000051
p573
aV0000000000000082
p574
aV0000000000000093
p575
aV0000000000000122
p576
asVeduardo
p577
(lp578
V0000000000000001
p579
aV0000000000000004
p580
aV0000000000000005
p581
aV0000000000000009
p582
aV0000000000000012
p583
asVcould
p584
(lp585
V0000000000000001
p586
aV0000000000000002
p587
aV0000000000000005
p588
aV0000000000000008
p589
aV0000000000000101
p590
asVconfirm
p591
(lp592
V0000000000000001
p593
asVfollowing
p594
(lp595
V0000000000000001
p596
aV0000000000000003
p597
asVtaxes
p598
(lp599
V0000000000000001
p600
asVused
p601
(lp602
V0000000000000001
p603
asVfinancial
p604
(lp605
V0000000000000001
p606
asVprojections
p607
(lp608
V0000000000000001
p609
asVpis
p610
(lp611
V0000000000000001
p612
aV0000000000000002
p613
aV0000000000000008
p614
asVcofins
p615
(lp616
V0000000000000001
p617
aV0000000000000002
p618
aV0000000000000008
p619
asVgross
p620
(lp621
V0000000000000001
p622
asVcpmf
p623
(lp624
V0000000000000001
p625
aV0000000000000004
p626
asVcash
p627
(lp628
V0000000000000001
p629
asVtransfers
p630
(lp631
V0000000000000001
p632
asVtotal
p633
(lp634
V0000000000000001
p635
aV0000000000000003
p636
asVincome
p637
(lp638
V0000000000000001
p639
asVtax
p640
(lp641
V0000000000000001
p642
aV0000000000000002
p643
aV0000000000000008
p644
aV0000000000000028
p645
asVtransaction
p646
(lp647
V0000000000000001
p648
aV0000000000000005
p649
aV0000000000000021
p650
asVricardo
p651
(lp652
V0000000000000001
p653
asVbelieve
p654
(lp655
V0000000000000001
p656
asVsami
p657
(lp658
V0000000000000001
p659
aV0000000000000005
p660
asVindicated
p661
(lp662
V0000000000000001
p663
asVprovide
p664
(lp665
V0000000000000001
p666
asVearlier
p667
(lp668
V0000000000000001
p669
asVnote
p670
(lp671
V0000000000000001
p672
asVadd
p673
(lp674
V0000000000000001
p675
asVsection
p676
(lp677
V0000000000000001
p678
asVregarding
p679
(lp680
V0000000000000001
p681
aV0000000000000002
p682
aV0000000000000004
p683
aV0000000000000008
p684
aV0000000000000122
p685
asVeffective
p686
(lp687
V0000000000000001
p688
asVsince
p689
(lp690
V0000000000000001
p691
asVseen
p692
(lp693
V0000000000000001
p694
aV0000000000000002
p695
aV0000000000000005
p696
aV0000000000000008
p697
asVsomeone
p698
(lp699
V0000000000000001
p700
asVfill
p701
(lp702
V0000000000000001
p703
asVblanks
p704
(lp705
V0000000000000001
p706
asVrates
p707
(lp708
V0000000000000001
p709
asVappreciate
p710
(lp711
V0000000000000001
p712
asVrecords
p713
(lp714
V0000000000000001
p715
asVindicate
p716
(lp717
V0000000000000001
p718
asVincludes
p719
(lp720
V0000000000000001
p721
aV0000000000000028
p722
asVreceipts
p723
(lp724
V0000000000000001
p725
asVdisbursements
p726
(lp727
V0000000000000001
p728
asVrepatriation
p729
(lp730
V0000000000000001
p731
asVback
p732
(lp733
V0000000000000001
p734
aV0000000000000002
p735
aV0000000000000008
p736
aV0000000000000025
p737
asVtrigger
p738
(lp739
V0000000000000001
p740
asVdividend
p741
(lp742
V0000000000000001
p743
asVrepatriated
p744
(lp745
V0000000000000001
p746
asVstephen
p747
(lp748
V0000000000000001
p749
asVdouglas
p750
(lp751
V0000000000000001
p752
aV0000000000000026
p753
aV0000000000000028
p754
aV0000000000000082
p755
asVname
p756
(lp757
V0000000000000001
p758
aV0000000000000025
p759
aV0000000000000122
p760
asVsign
p761
(lp762
V0000000000000001
p763
aV0000000000000015
p764
asVlist
p765
(lp766
V0000000000000001
p767
aV0000000000000002
p768
aV0000000000000008
p769
asVlead
p770
(lp771
V0000000000000001
p772
asVmember
p773
(lp774
V0000000000000001
p775
aV0000000000000012
p776
aV0000000000000015
p777
aV0000000000000025
p778
asVplanning
p779
(lp780
V0000000000000001
p781
aV0000000000000002
p782
aV0000000000000008
p783
asVgroup
p784
(lp785
V0000000000000001
p786
aV0000000000000091
p787
asVwholesale
p788
(lp789
V0000000000000001
p790
asVmary
p791
(lp792
V0000000000000001
p793
aV0000000000000004
p794
aV0000000000000009
p795
aV0000000000000026
p796
asVversion
p797
(lp798
V0000000000000001
p799
asValcoa
p800
(lp801
V0000000000000001
p802
aV0000000000000004
p803
asVincorporating
p804
(lp805
V0000000000000001
p806
asVcomments
p807
(lp808
V0000000000000001
p809
aV0000000000000005
p810
aV0000000000000030
p811
asVremi
p812
(lp813
V0000000000000001
p814
aV0000000000000002
p815
aV0000000000000004
p816
aV0000000000000008
p817
aV0000000000000012
p818
asVadditional
p819
(lp820
V0000000000000001
p821
aV0000000000000005
p822
aV0000000000000015
p823
asVotherwise
p824
(lp825
V0000000000000001
p826
asVready
p827
(lp828
V0000000000000001
p829
asVcoordinate
p830
(lp831
V0000000000000001
p832
asVsignatures
p833
(lp834
V0000000000000001
p835
asVforward
p836
(lp837
V0000000000000001
p838
aV0000000000000020
p839
asVfinal
p840
(lp841
V0000000000000001
p842
asVregards
p843
(lp844
V0000000000000001
p845
asVfile
p846
(lp847
V0000000000000001
p848
asVdoc
p849
(lp850
V0000000000000001
p851
aV0000000000000020
p852
aV0000000000000022
p853
asVjody
p854
(lp855
V0000000000000002
p856
aV0000000000000008
p857
asVcris
p858
(lp859
V0000000000000002
p860
aV0000000000000008
p861
asVbecame
p862
(lp863
V0000000000000002
p864
aV0000000000000008
p865
asVaware
p866
(lp867
V0000000000000002
p868
aV0000000000000008
p869
asVduke
p870
(lp871
V0000000000000002
p872
aV0000000000000008
p873
asVlate
p874
(lp875
V0000000000000002
p876
aV0000000000000008
p877
asVmonday
p878
(lp879
V0000000000000002
p880
aV0000000000000008
p881
aV0000000000000119
p882
aV0000000000000122
p883
asVspent
p884
(lp885
V0000000000000002
p886
aV0000000000000008
p887
asVyesterday
p888
(lp889
V0000000000000002
p890
aV0000000000000008
p891
asVvalidating
p892
(lp893
V0000000000000002
p894
aV0000000000000008
p895
asVassumptions
p896
(lp897
V0000000000000002
p898
aV0000000000000008
p899
asVvalue
p900
(lp901
V0000000000000002
p902
aV0000000000000008
p903
asVlooks
p904
(lp905
V0000000000000002
p906
aV0000000000000008
p907
asVaround
p908
(lp909
V0000000000000002
p910
aV0000000000000008
p911
asVmm
p912
(lp913
V0000000000000002
p914
aV0000000000000008
p915
asVplan
p916
(lp917
V0000000000000002
p918
aV0000000000000005
p919
aV0000000000000008
p920
asVfinalized
p921
(lp922
V0000000000000002
p923
aV0000000000000008
p924
asVtoday
p925
(lp926
V0000000000000002
p927
aV0000000000000008
p928
aV0000000000000012
p929
asVinitially
p930
(lp931
V0000000000000002
p932
aV0000000000000008
p933
asVprudence
p934
(lp935
V0000000000000002
p936
aV0000000000000008
p937
asVlavo
p938
(lp939
V0000000000000002
p940
aV0000000000000008
p941
asVapproval
p942
(lp943
V0000000000000002
p944
aV0000000000000008
p945
asVhowever
p946
(lp947
V0000000000000002
p948
aV0000000000000008
p949
asVadded
p950
(lp951
V0000000000000002
p952
aV0000000000000008
p953
aV0000000000000017
p954
asVpay
p955
(lp956
V0000000000000002
p957
aV0000000000000008
p958
asVoption
p959
(lp960
V0000000000000002
p961
aV0000000000000008
p962
asVpremium
p963
(lp964
V0000000000000002
p965
aV0000000000000008
p966
asVrobin
p967
(lp968
V0000000000000002
p969
aV0000000000000008
p970
asVveariel
p971
(lp972
V0000000000000002
p973
aV0000000000000008
p974
asVconfirmed
p975
(lp976
V0000000000000002
p977
aV0000000000000008
p978
aV0000000000000026
p979
aV0000000000000028
p980
asVece
p981
(lp982
V0000000000000002
p983
aV0000000000000008
p984
asVreceived
p985
(lp986
V0000000000000002
p987
aV0000000000000008
p988
aV0000000000000030
p989
aV0000000000000122
p990
asVmoney
p991
(lp992
V0000000000000002
p993
aV0000000000000008
p994
asVspoke
p995
(lp996
V0000000000000002
p997
aV0000000000000008
p998
aV0000000000000012
p999
aV0000000000000048
p1000
asVpaul
p1001
(lp1002
V0000000000000002
p1003
aV0000000000000008
p1004
aV0000000000000035
p1005
asVradous
p1006
(lp1007
V0000000000000002
p1008
aV0000000000000008
p1009
asVcredit
p1010
(lp1011
V0000000000000002
p1012
aV0000000000000008
p1013
aV0000000000000012
p1014
aV0000000000000015
p1015
aV0000000000000071
p1016
asVtaking
p1017
(lp1018
V0000000000000002
p1019
aV0000000000000008
p1020
asVreserve
p1021
(lp1022
V0000000000000002
p1023
aV0000000000000007
p1024
aV0000000000000008
p1025
asVsupposed
p1026
(lp1027
V0000000000000002
p1028
aV0000000000000008
p1029
asVreceive
p1030
(lp1031
V0000000000000002
p1032
aV0000000000000008
p1033
aV0000000000000012
p1034
aV0000000000000023
p1035
asVparental
p1036
(lp1037
V0000000000000002
p1038
aV0000000000000008
p1039
asVguarantee
p1040
(lp1041
V0000000000000002
p1042
aV0000000000000008
p1043
aV0000000000000026
p1044
aV0000000000000027
p1045
aV0000000000000028
p1046
asVkeep
p1047
(lp1048
V0000000000000002
p1049
aV0000000000000008
p1050
asVposted
p1051
(lp1052
V0000000000000002
p1053
aV0000000000000008
p1054
asVmessage
p1055
(lp1056
V0000000000000002
p1057
aV0000000000000008
p1058
aV0000000000000010
p1059
asVpassed
p1060
(lp1061
V0000000000000002
p1062
aV0000000000000008
p1063
asVstacey
p1064
(lp1065
V0000000000000002
p1066
aV0000000000000005
p1067
aV0000000000000008
p1068
aV0000000000000011
p1069
aV0000000000000016
p1070
aV0000000000000017
p1071
aV0000000000000018
p1072
aV0000000000000023
p1073
aV0000000000000025
p1074
aV0000000000000026
p1075
aV0000000000000027
p1076
aV0000000000000028
p1077
aV0000000000000030
p1078
aV0000000000000033
p1079
aV0000000000000036
p1080
aV0000000000000038
p1081
aV0000000000000039
p1082
aV0000000000000040
p1083
aV0000000000000045
p1084
aV0000000000000046
p1085
aV0000000000000047
p1086
aV0000000000000048
p1087
aV0000000000000049
p1088
aV0000000000000050
p1089
aV0000000000000051
p1090
aV0000000000000052
p1091
aV0000000000000053
p1092
aV0000000000000054
p1093
aV0000000000000056
p1094
aV0000000000000057
p1095
aV0000000000000058
p1096
aV0000000000000062
p1097
aV0000000000000063
p1098
aV0000000000000064
p1099
aV0000000000000068
p1100
aV0000000000000069
p1101
aV0000000000000070
p1102
aV0000000000000071
p1103
aV0000000000000074
p1104
aV0000000000000075
p1105
aV0000000000000076
p1106
aV0000000000000077
p1107
aV0000000000000078
p1108
aV0000000000000079
p1109
aV0000000000000081
p1110
aV0000000000000083
p1111
aV0000000000000084
p1112
aV0000000000000085
p1113
aV0000000000000087
p1114
aV0000000000000089
p1115
aV0000000000000091
p1116
aV0000000000000093
p1117
aV0000000000000097
p1118
aV0000000000000098
p1119
aV0000000000000099
p1120
aV0000000000000100
p1121
aV0000000000000102
p1122
aV0000000000000103
p1123
aV0000000000000104
p1124
aV0000000000000108
p1125
aV0000000000000109
p1126
aV0000000000000110
p1127
aV0000000000000112
p1128
aV0000000000000114
p1129
aV0000000000000115
p1130
aV0000000000000116
p1131
aV0000000000000117
p1132
aV0000000000000122
p1133
asVknow
p1134
(lp1135
V0000000000000002
p1136
aV0000000000000005
p1137
aV0000000000000008
p1138
aV0000000000000012
p1139
aV0000000000000019
p1140
aV0000000000000101
p1141
aV0000000000000122
p1142
asVcoming
p1143
(lp1144
V0000000000000002
p1145
aV0000000000000008
p1146
asVchris
p1147
(lp1148
V0000000000000002
p1149
aV0000000000000008
p1150
asVjeff
p1151
(lp1152
V0000000000000002
p1153
aV0000000000000008
p1154
asVanything
p1155
(lp1156
V0000000000000002
p1157
aV0000000000000008
p1158
asVyet
p1159
(lp1160
V0000000000000002
p1161
aV0000000000000008
p1162
aV0000000000000022
p1163
asVprefer
p1164
(lp1165
V0000000000000002
p1166
aV0000000000000008
p1167
asVput
p1168
(lp1169
V0000000000000002
p1170
aV0000000000000008
p1171
aV0000000000000051
p1172
aV0000000000000101
p1173
asVbig
p1174
(lp1175
V0000000000000002
p1176
aV0000000000000008
p1177
asVhotlist
p1178
(lp1179
V0000000000000002
p1180
aV0000000000000008
p1181
asVguys
p1182
(lp1183
V0000000000000002
p1184
aV0000000000000008
p1185
asVsemi
p1186
(lp1187
V0000000000000002
p1188
aV0000000000000008
p1189
asVcomfortable
p1190
(lp1191
V0000000000000002
p1192
aV0000000000000008
p1193
asVreply
p1194
(lp1195
V0000000000000002
p1196
aV0000000000000008
p1197
asVandersen
p1198
(lp1199
V0000000000000002
p1200
aV0000000000000008
p1201
asVtrading
p1202
(lp1203
V0000000000000002
p1204
aV0000000000000003
p1205
aV0000000000000008
p1206
aV0000000000000052
p1207
aV0000000000000112
p1208
asVlet
p1209
(lp1210
V0000000000000002
p1211
aV0000000000000005
p1212
aV0000000000000008
p1213
aV0000000000000012
p1214
aV0000000000000019
p1215
aV0000000000000101
p1216
aV0000000000000122
p1217
asVhear
p1218
(lp1219
V0000000000000002
p1220
aV0000000000000008
p1221
asVgents
p1222
(lp1223
V0000000000000002
p1224
aV0000000000000008
p1225
asVlots
p1226
(lp1227
V0000000000000002
p1228
aV0000000000000008
p1229
asVnoise
p1230
(lp1231
V0000000000000002
p1232
aV0000000000000008
p1233
asVbooked
p1234
(lp1235
V0000000000000002
p1236
aV0000000000000008
p1237
asVfot
p1238
(lp1239
V0000000000000002
p1240
aV0000000000000008
p1241
asVweeks
p1242
(lp1243
V0000000000000002
p1244
aV0000000000000008
p1245
asVhot
p1246
(lp1247
V0000000000000002
p1248
aV0000000000000008
p1249
asVactually
p1250
(lp1251
V0000000000000002
p1252
aV0000000000000008
p1253
aV0000000000000012
p1254
asVdone
p1255
(lp1256
V0000000000000002
p1257
aV0000000000000008
p1258
aV0000000000000025
p1259
asVlittle
p1260
(lp1261
V0000000000000002
p1262
aV0000000000000008
p1263
asVbird
p1264
(lp1265
V0000000000000002
p1266
aV0000000000000008
p1267
asVtold
p1268
(lp1269
V0000000000000002
p1270
aV0000000000000005
p1271
aV0000000000000008
p1272
asVhigh
p1273
(lp1274
V0000000000000002
p1275
aV0000000000000008
p1276
asVwell
p1277
(lp1278
V0000000000000002
p1279
aV0000000000000008
p1280
asVbuy
p1281
(lp1282
V0000000000000002
p1283
aV0000000000000008
p1284
aV0000000000000017
p1285
asVsending
p1286
(lp1287
V0000000000000002
p1288
aV0000000000000008
p1289
asVforecast
p1290
(lp1291
V0000000000000002
p1292
aV0000000000000008
p1293
asVweek
p1294
(lp1295
V0000000000000002
p1296
aV0000000000000008
p1297
asVwant
p1298
(lp1299
V0000000000000002
p1300
aV0000000000000008
p1301
aV0000000000000012
p1302
asVtalk
p1303
(lp1304
V0000000000000002
p1305
aV0000000000000008
p1306
asVinside
p1307
(lp1308
V0000000000000002
p1309
aV0000000000000008
p1310
asVnumber
p1311
(lp1312
V0000000000000002
p1313
aV0000000000000008
p1314
aV0000000000000023
p1315
aV0000000000000026
p1316
aV0000000000000028
p1317
aV0000000000000029
p1318
aV0000000000000030
p1319
asVbook
p1320
(lp1321
V0000000000000002
p1322
aV0000000000000008
p1323
asVgetting
p1324
(lp1325
V0000000000000002
p1326
aV0000000000000008
p1327
asVprepared
p1328
(lp1329
V0000000000000002
p1330
aV0000000000000008
p1331
asVkish
p1332
(lp1333
V0000000000000002
p1334
aV0000000000000008
p1335
asVreferenced
p1336
(lp1337
V0000000000000003
p1338
asVinformation
p1339
(lp1340
V0000000000000003
p1341
aV0000000000000013
p1342
aV0000000000000015
p1343
aV0000000000000026
p1344
aV0000000000000030
p1345
aV0000000000000097
p1346
asVchanges
p1347
(lp1348
V0000000000000003
p1349
asVrho
p1350
(lp1351
V0000000000000003
p1352
aV0000000000000007
p1353
asVdrift
p1354
(lp1355
V0000000000000003
p1356
aV0000000000000007
p1357
asVargentina
p1358
(lp1359
V0000000000000003
p1360
aV0000000000000007
p1361
asVgas
p1362
(lp1363
V0000000000000003
p1364
aV0000000000000007
p1365
asVintramonth
p1366
(lp1367
V0000000000000003
p1368
aV0000000000000007
p1369
asVvolume
p1370
(lp1371
V0000000000000003
p1372
aV0000000000000005
p1373
aV0000000000000007
p1374
aV0000000000000009
p1375
aV0000000000000012
p1376
asVupdates
p1377
(lp1378
V0000000000000003
p1379
asVctsn
p1380
(lp1381
V0000000000000003
p1382
asVcamuzzi
p1383
(lp1384
V0000000000000003
p1385
asVprofertil
p1386
(lp1387
V0000000000000003
p1388
asVrenault
p1389
(lp1390
V0000000000000003
p1391
asVmanagement
p1392
(lp1393
V0000000000000003
p1394
aV0000000000000097
p1395
asVmodesto
p1396
(lp1397
V0000000000000003
p1398
asVmaranzana
p1399
(lp1400
V0000000000000003
p1401
asVpatricia
p1402
(lp1403
V0000000000000003
p1404
asVrivera
p1405
(lp1406
V0000000000000003
p1407
asVchanged
p1408
(lp1409
V0000000000000004
p1410
asVcurve
p1411
(lp1412
V0000000000000004
p1413
asVreflected
p1414
(lp1415
V0000000000000004
p1416
asVincluded
p1417
(lp1418
V0000000000000004
p1419
aV0000000000000028
p1420
asVbased
p1421
(lp1422
V0000000000000004
p1423
aV0000000000000007
p1424
asVdiscussion
p1425
(lp1426
V0000000000000004
p1427
aV0000000000000020
p1428
asVcalculate
p1429
(lp1430
V0000000000000004
p1431
asVtalked
p1432
(lp1433
V0000000000000005
p1434
asVarap
p1435
(lp1436
V0000000000000005
p1437
asVattoney
p1438
(lp1439
V0000000000000005
p1440
asVresponsible
p1441
(lp1442
V0000000000000005
p1443
asVrationing
p1444
(lp1445
V0000000000000005
p1446
aV0000000000000012
p1447
asVgoing
p1448
(lp1449
V0000000000000005
p1450
asVtreated
p1451
(lp1452
V0000000000000005
p1453
asVforce
p1454
(lp1455
V0000000000000005
p1456
asVmajeure
p1457
(lp1458
V0000000000000005
p1459
asVevent
p1460
(lp1461
V0000000000000005
p1462
aV0000000000000070
p1463
aV0000000000000089
p1464
asVcontract
p1465
(lp1466
V0000000000000005
p1467
asVbesides
p1468
(lp1469
V0000000000000005
p1470
asVspecific
p1471
(lp1472
V0000000000000005
p1473
asVlanguage
p1474
(lp1475
V0000000000000005
p1476
asVcalling
p1477
(lp1478
V0000000000000005
p1479
asVpre
p1480
(lp1481
V0000000000000005
p1482
asVfm
p1483
(lp1484
V0000000000000005
p1485
asVmay
p1486
(lp1487
V0000000000000005
p1488
aV0000000000000012
p1489
aV0000000000000017
p1490
aV0000000000000020
p1491
aV0000000000000026
p1492
aV0000000000000028
p1493
aV0000000000000122
p1494
asVoccur
p1495
(lp1496
V0000000000000005
p1497
asVtwo
p1498
(lp1499
V0000000000000005
p1500
asVcircumstances
p1501
(lp1502
V0000000000000005
p1503
asVspot
p1504
(lp1505
V0000000000000005
p1506
asVprice
p1507
(lp1508
V0000000000000005
p1509
aV0000000000000023
p1510
asVhigher
p1511
(lp1512
V0000000000000005
p1513
asVfeb
p1514
(lp1515
V0000000000000005
p1516
aV0000000000000027
p1517
asVii
p1518
(lp1519
V0000000000000005
p1520
asVnet
p1521
(lp1522
V0000000000000005
p1523
asVenergy
p1524
(lp1525
V0000000000000005
p1526
aV0000000000000010
p1527
aV0000000000000012
p1528
aV0000000000000020
p1529
asValocated
p1530
(lp1531
V0000000000000005
p1532
asVfurnas
p1533
(lp1534
V0000000000000005
p1535
asVmre
p1536
(lp1537
V0000000000000005
p1538
aV0000000000000012
p1539
asVlower
p1540
(lp1541
V0000000000000005
p1542
aV0000000000000012
p1543
asVassured
p1544
(lp1545
V0000000000000005
p1546
aV0000000000000012
p1547
asVimpact
p1548
(lp1549
V0000000000000005
p1550
asVsections
p1551
(lp1552
V0000000000000005
p1553
asVaccounting
p1554
(lp1555
V0000000000000005
p1556
aV0000000000000008
p1557
asVtreatment
p1558
(lp1559
V0000000000000005
p1560
aV0000000000000012
p1561
asVreads
p1562
(lp1563
V0000000000000005
p1564
asVreduced
p1565
(lp1566
V0000000000000005
p1567
asVcase
p1568
(lp1569
V0000000000000005
p1570
aV0000000000000012
p1571
asVprobably
p1572
(lp1573
V0000000000000005
p1574
asVconsider
p1575
(lp1576
V0000000000000005
p1577
asVfirm
p1578
(lp1579
V0000000000000005
p1580
aV0000000000000012
p1581
asVgotten
p1582
(lp1583
V0000000000000005
p1584
asVlegal
p1585
(lp1586
V0000000000000005
p1587
asVopinion
p1588
(lp1589
V0000000000000005
p1590
asVwhether
p1591
(lp1592
V0000000000000005
p1593
aV0000000000000012
p1594
asVassist
p1595
(lp1596
V0000000000000005
p1597
aV0000000000000028
p1598
asVinclude
p1599
(lp1600
V0000000000000005
p1601
aV0000000000000030
p1602
asVsaying
p1603
(lp1604
V0000000000000005
p1605
asVcontracted
p1606
(lp1607
V0000000000000005
p1608
asVcap
p1609
(lp1610
V0000000000000005
p1611
asVguess
p1612
(lp1613
V0000000000000005
p1614
asVdoesn
p1615
(lp1616
V0000000000000005
p1617
asVaffect
p1618
(lp1619
V0000000000000005
p1620
asVmight
p1621
(lp1622
V0000000000000006
p1623
aV0000000000000122
p1624
asVinterest
p1625
(lp1626
V0000000000000006
p1627
aV0000000000000010
p1628
asVsummary
p1629
(lp1630
V0000000000000007
p1631
asVjune
p1632
(lp1633
V0000000000000007
p1634
asVthru
p1635
(lp1636
V0000000000000007
p1637
asVaug
p1638
(lp1639
V0000000000000007
p1640
aV0000000000000027
p1641
asVprior
p1642
(lp1643
V0000000000000007
p1644
aV0000000000000028
p1645
asVperiod
p1646
(lp1647
V0000000000000007
p1648
asVadjustments
p1649
(lp1650
V0000000000000007
p1651
asVassociated
p1652
(lp1653
V0000000000000007
p1654
asVmae
p1655
(lp1656
V0000000000000007
p1657
asVreceivable
p1658
(lp1659
V0000000000000007
p1660
asVnovember
p1661
(lp1662
V0000000000000007
p1663
asVestimates
p1664
(lp1665
V0000000000000007
p1666
asVstevens
p1667
(lp1668
V0000000000000007
p1669
asVaa
p1670
(lp1671
V0000000000000008
p1672
aV0000000000000011
p1673
aV0000000000000085
p1674
asVconcurred
p1675
(lp1676
V0000000000000008
p1677
asVcommodity
p1678
(lp1679
V0000000000000008
p1680
asVlong
p1681
(lp1682
V0000000000000008
p1683
asVattributes
p1684
(lp1685
V0000000000000008
p1686
asVdifferent
p1687
(lp1688
V0000000000000008
p1689
asVstandard
p1690
(lp1691
V0000000000000008
p1692
aV0000000000000031
p1693
aV0000000000000032
p1694
aV0000000000000033
p1695
aV0000000000000034
p1696
aV0000000000000035
p1697
aV0000000000000036
p1698
aV0000000000000037
p1699
aV0000000000000038
p1700
aV0000000000000039
p1701
aV0000000000000040
p1702
aV0000000000000041
p1703
aV0000000000000042
p1704
aV0000000000000043
p1705
aV0000000000000044
p1706
aV0000000000000045
p1707
aV0000000000000046
p1708
aV0000000000000047
p1709
aV0000000000000048
p1710
aV0000000000000049
p1711
aV0000000000000050
p1712
aV0000000000000051
p1713
aV0000000000000052
p1714
aV0000000000000053
p1715
aV0000000000000054
p1716
aV0000000000000055
p1717
aV0000000000000056
p1718
aV0000000000000057
p1719
aV0000000000000058
p1720
aV0000000000000059
p1721
aV0000000000000060
p1722
aV0000000000000061
p1723
aV0000000000000062
p1724
aV0000000000000063
p1725
aV0000000000000064
p1726
aV0000000000000065
p1727
aV0000000000000066
p1728
aV0000000000000067
p1729
aV0000000000000068
p1730
aV0000000000000069
p1731
aV0000000000000071
p1732
aV0000000000000072
p1733
aV0000000000000073
p1734
aV0000000000000074
p1735
aV0000000000000075
p1736
aV0000000000000076
p1737
aV0000000000000077
p1738
aV0000000000000078
p1739
aV0000000000000079
p1740
aV0000000000000080
p1741
aV0000000000000081
p1742
aV0000000000000083
p1743
aV0000000000000084
p1744
aV0000000000000085
p1745
aV0000000000000086
p1746
aV0000000000000087
p1747
aV0000000000000088
p1748
aV0000000000000090
p1749
aV0000000000000091
p1750
aV0000000000000092
p1751
aV0000000000000094
p1752
aV0000000000000095
p1753
aV0000000000000096
p1754
aV0000000000000097
p1755
aV0000000000000098
p1756
aV0000000000000099
p1757
aV0000000000000100
p1758
aV0000000000000102
p1759
aV0000000000000103
p1760
aV0000000000000104
p1761
aV0000000000000105
p1762
aV0000000000000106
p1763
aV0000000000000107
p1764
aV0000000000000108
p1765
aV0000000000000109
p1766
aV0000000000000110
p1767
aV0000000000000111
p1768
aV0000000000000112
p1769
aV0000000000000113
p1770
aV0000000000000114
p1771
aV0000000000000115
p1772
aV0000000000000116
p1773
aV0000000000000117
p1774
aV0000000000000120
p1775
asVbus
p1776
(lp1777
V0000000000000008
p1778
asVunit
p1779
(lp1780
V0000000000000008
p1781
asVupdate
p1782
(lp1783
V0000000000000008
p1784
asVgeneral
p1785
(lp1786
V0000000000000008
p1787
asVknowledge
p1788
(lp1789
V0000000000000008
p1790
asVregulatory
p1791
(lp1792
V0000000000000008
p1793
asVenvironment
p1794
(lp1795
V0000000000000008
p1796
asVetc
p1797
(lp1798
V0000000000000008
p1799
asVpresentation
p1800
(lp1801
V0000000000000008
p1802
aV0000000000000019
p1803
aV0000000000000046
p1804
asVmaterials
p1805
(lp1806
V0000000000000008
p1807
asValready
p1808
(lp1809
V0000000000000008
p1810
asVhelpful
p1811
(lp1812
V0000000000000008
p1813
asVregard
p1814
(lp1815
V0000000000000008
p1816
asVexpected
p1817
(lp1818
V0000000000000008
p1819
asVgo
p1820
(lp1821
V0000000000000008
p1822
asVupdated
p1823
(lp1824
V0000000000000009
p1825
aV0000000000000016
p1826
aV0000000000000017
p1827
aV0000000000000018
p1828
asVcorrected
p1829
(lp1830
V0000000000000009
p1831
asVsorry
p1832
(lp1833
V0000000000000009
p1834
aV0000000000000022
p1835
asVmw
p1836
(lp1837
V0000000000000009
p1838
aV0000000000000012
p1839
asVversus
p1840
(lp1841
V0000000000000009
p1842
asVmwh
p1843
(lp1844
V0000000000000009
p1845
asVfyi
p1846
(lp1847
V0000000000000010
p1848
aV0000000000000093
p1849
asVstatus
p1850
(lp1851
V0000000000000010
p1852
asVjanie
p1853
(lp1854
V0000000000000010
p1855
asVsent
p1856
(lp1857
V0000000000000010
p1858
asVmsnbc
p1859
(lp1860
V0000000000000010
p1861
asVnews
p1862
(lp1863
V0000000000000010
p1864
asVlink
p1865
(lp1866
V0000000000000010
p1867
asVsomething
p1868
(lp1869
V0000000000000010
p1870
asVperils
p1871
(lp1872
V0000000000000010
p1873
asVabundance
p1874
(lp1875
V0000000000000010
p1876
asVconfronts
p1877
(lp1878
V0000000000000010
p1879
asVdire
p1880
(lp1881
V0000000000000010
p1882
asVshortage
p1883
(lp1884
V0000000000000010
p1885
asVabrupt
p1886
(lp1887
V0000000000000010
p1888
asVculture
p1889
(lp1890
V0000000000000010
p1891
asVcarefree
p1892
(lp1893
V0000000000000010
p1894
asVwaste
p1895
(lp1896
V0000000000000010
p1897
asVhttp
p1898
(lp1899
V0000000000000010
p1900
aV0000000000000015
p1901
aV0000000000000022
p1902
aV0000000000000029
p1903
aV0000000000000030
p1904
asVwww
p1905
(lp1906
V0000000000000010
p1907
aV0000000000000029
p1908
aV0000000000000030
p1909
asVcom
p1910
(lp1911
V0000000000000010
p1912
aV0000000000000015
p1913
aV0000000000000022
p1914
aV0000000000000029
p1915
aV0000000000000030
p1916
asVmodules
p1917
(lp1918
V0000000000000010
p1919
asVexports
p1920
(lp1921
V0000000000000010
p1922
asVct
p1923
(lp1924
V0000000000000010
p1925
asVemail
p1926
(lp1927
V0000000000000010
p1928
aV0000000000000013
p1929
aV0000000000000030
p1930
asVasp
p1931
(lp1932
V0000000000000010
p1933
aV0000000000000029
p1934
asVcheck
p1935
(lp1936
V0000000000000010
p1937
aV0000000000000028
p1938
aV0000000000000110
p1939
asVhour
p1940
(lp1941
V0000000000000010
p1942
aV0000000000000047
p1943
asVtop
p1944
(lp1945
V0000000000000010
p1946
asVstories
p1947
(lp1948
V0000000000000010
p1949
asVsave
p1950
(lp1951
V0000000000000011
p1952
aV0000000000000013
p1953
asVattachment
p1954
(lp1955
V0000000000000011
p1956
asVdropbox
p1957
(lp1958
V0000000000000011
p1959
asVaccess
p1960
(lp1961
V0000000000000011
p1962
asVone
p1963
(lp1964
V0000000000000012
p1965
asVcorrection
p1966
(lp1967
V0000000000000012
p1968
asVget
p1969
(lp1970
V0000000000000012
p1971
aV0000000000000020
p1972
aV0000000000000022
p1973
aV0000000000000024
p1974
aV0000000000000101
p1975
asVcome
p1976
(lp1977
V0000000000000012
p1978
asVreallocation
p1979
(lp1980
V0000000000000012
p1981
asVmechanism
p1982
(lp1983
V0000000000000012
p1984
asVhydro
p1985
(lp1986
V0000000000000012
p1987
asVgenerators
p1988
(lp1989
V0000000000000012
p1990
asVregulated
p1991
(lp1992
V0000000000000012
p1993
asVaneel
p1994
(lp1995
V0000000000000012
p1996
asVobjective
p1997
(lp1998
V0000000000000012
p1999
asVoptimize
p2000
(lp2001
V0000000000000012
p2002
asVcost
p2003
(lp2004
V0000000000000012
p2005
asVgeneration
p2006
(lp2007
V0000000000000012
p2008
asVregardless
p2009
(lp2010
V0000000000000012
p2011
asVgenerated
p2012
(lp2013
V0000000000000012
p2014
asValways
p2015
(lp2016
V0000000000000012
p2017
asVgets
p2018
(lp2019
V0000000000000012
p2020
asVplus
p2021
(lp2022
V0000000000000012
p2023
asVsecondary
p2024
(lp2025
V0000000000000012
p2026
asVsurplus
p2027
(lp2028
V0000000000000012
p2029
asVsanta
p2030
(lp2031
V0000000000000012
p2032
asVclara
p2033
(lp2034
V0000000000000012
p2035
asVdue
p2036
(lp2037
V0000000000000012
p2038
aV0000000000000077
p2039
asVdeliver
p2040
(lp2041
V0000000000000012
p2042
asVeven
p2043
(lp2044
V0000000000000012
p2045
aV0000000000000030
p2046
asVminimum
p2047
(lp2048
V0000000000000012
p2049
asVproposed
p2050
(lp2051
V0000000000000012
p2052
asVdoubt
p2053
(lp2054
V0000000000000012
p2055
asVtks
p2056
(lp2057
V0000000000000012
p2058
asVdiscussing
p2059
(lp2060
V0000000000000012
p2061
asVunderstand
p2062
(lp2063
V0000000000000012
p2064
aV0000000000000122
p2065
asVpoint
p2066
(lp2067
V0000000000000012
p2068
asVnegotiations
p2069
(lp2070
V0000000000000012
p2071
asVamount
p2072
(lp2073
V0000000000000012
p2074
aV0000000000000025
p2075
asVldc
p2076
(lp2077
V0000000000000012
p2078
asVgenerating
p2079
(lp2080
V0000000000000012
p2081
asVequal
p2082
(lp2083
V0000000000000012
p2084
asVgenerate
p2085
(lp2086
V0000000000000012
p2087
asVdetermined
p2088
(lp2089
V0000000000000012
p2090
asVavailability
p2091
(lp2092
V0000000000000012
p2093
asVregion
p2094
(lp2095
V0000000000000012
p2096
asVsituation
p2097
(lp2098
V0000000000000012
p2099
asVscenerio
p2100
(lp2101
V0000000000000012
p2102
asVquantity
p2103
(lp2104
V0000000000000012
p2105
asVspecified
p2106
(lp2107
V0000000000000012
p2108
asVmissing
p2109
(lp2110
V0000000000000012
p2111
asVaspect
p2112
(lp2113
V0000000000000012
p2114
asVgives
p2115
(lp2116
V0000000000000012
p2117
asVability
p2118
(lp2119
V0000000000000012
p2120
asVmark
p2121
(lp2122
V0000000000000012
p2123
aV0000000000000022
p2124
asVlogin
p2125
(lp2126
V0000000000000013
p2127
asVverticalnet
p2128
(lp2129
V0000000000000013
p2130
asVebusiness
p2131
(lp2132
V0000000000000013
p2133
asVtraining
p2134
(lp2135
V0000000000000013
p2136
asVservices
p2137
(lp2138
V0000000000000013
p2139
aV0000000000000109
p2140
asVusername
p2141
(lp2142
V0000000000000013
p2143
asVpassword
p2144
(lp2145
V0000000000000013
p2146
aV0000000000000014
p2147
aV0000000000000015
p2148
asVwhites
p2149
(lp2150
V0000000000000013
p2151
asVlog
p2152
(lp2153
V0000000000000013
p2154
asVaccount
p2155
(lp2156
V0000000000000013
p2157
aV0000000000000014
p2158
aV0000000000000015
p2159
asVclicking
p2160
(lp2161
V0000000000000013
p2162
asVuse
p2163
(lp2164
V0000000000000013
p2165
aV0000000000000024
p2166
asVreset
p2167
(lp2168
V0000000000000014
p2169
asVid
p2170
(lp2171
V0000000000000015
p2172
aV0000000000000025
p2173
aV0000000000000026
p2174
aV0000000000000028
p2175
asVcuero
p2176
(lp2177
V0000000000000015
p2178
asVgobblers
p2179
(lp2180
V0000000000000015
p2181
asVsecurity
p2182
(lp2183
V0000000000000015
p2184
asVcard
p2185
(lp2186
V0000000000000015
p2187
aV0000000000000027
p2188
aV0000000000000028
p2189
aV0000000000000071
p2190
asVstored
p2191
(lp2192
V0000000000000015
p2193
asVcleared
p2194
(lp2195
V0000000000000015
p2196
asVstill
p2197
(lp2198
V0000000000000015
p2199
asVtrouble
p2200
(lp2201
V0000000000000015
p2202
asVaccessing
p2203
(lp2204
V0000000000000015
p2205
asVeservice
p2206
(lp2207
V0000000000000015
p2208
asVonline
p2209
(lp2210
V0000000000000015
p2211
asVfind
p2212
(lp2213
V0000000000000015
p2214
aV0000000000000019
p2215
aV0000000000000020
p2216
aV0000000000000025
p2217
asVfrequently
p2218
(lp2219
V0000000000000015
p2220
asVquestions
p2221
(lp2222
V0000000000000015
p2223
aV0000000000000024
p2224
aV0000000000000030
p2225
aV0000000000000082
p2226
aV0000000000000122
p2227
asVhttps
p2228
(lp2229
V0000000000000015
p2230
asVpub
p2231
(lp2232
V0000000000000015
p2233
asVagent
p2234
(lp2235
V0000000000000015
p2236
aV0000000000000026
p2237
aV0000000000000027
p2238
aV0000000000000028
p2239
asVdll
p2240
(lp2241
V0000000000000015
p2242
asVqscr
p2243
(lp2244
V0000000000000015
p2245
asVhgen
p2246
(lp2247
V0000000000000015
p2248
asVhfnm
p2249
(lp2250
V0000000000000015
p2251
asVsc
p2252
(lp2253
V0000000000000015
p2254
asVsignfaq
p2255
(lp2256
V0000000000000015
p2257
asVhtx
p2258
(lp2259
V0000000000000015
p2260
asVrhtx
p2261
(lp2262
V0000000000000015
p2263
asVusing
p2264
(lp2265
V0000000000000015
p2266
aV0000000000000026
p2267
aV0000000000000027
p2268
aV0000000000000028
p2269
asVcontinental
p2270
(lp2271
V0000000000000015
p2272
aV0000000000000026
p2273
asVairlines
p2274
(lp2275
V0000000000000015
p2276
asVtravel
p2277
(lp2278
V0000000000000015
p2279
aV0000000000000026
p2280
aV0000000000000028
p2281
asVassigned
p2282
(lp2283
V0000000000000016
p2284
aV0000000000000017
p2285
aV0000000000000023
p2286
asVcn
p2287
(lp2288
V0000000000000016
p2289
aV0000000000000017
p2290
aV0000000000000018
p2291
asVwhite
p2292
(lp2293
V0000000000000016
p2294
aV0000000000000017
p2295
aV0000000000000018
p2296
aV0000000000000025
p2297
aV0000000000000026
p2298
aV0000000000000027
p2299
aV0000000000000028
p2300
aV0000000000000030
p2301
aV0000000000000033
p2302
aV0000000000000036
p2303
aV0000000000000038
p2304
aV0000000000000039
p2305
aV0000000000000040
p2306
aV0000000000000046
p2307
aV0000000000000047
p2308
aV0000000000000048
p2309
aV0000000000000049
p2310
aV0000000000000050
p2311
aV0000000000000051
p2312
aV0000000000000052
p2313
aV0000000000000053
p2314
aV0000000000000054
p2315
aV0000000000000056
p2316
aV0000000000000057
p2317
aV0000000000000062
p2318
aV0000000000000063
p2319
aV0000000000000064
p2320
aV0000000000000068
p2321
aV0000000000000069
p2322
aV0000000000000070
p2323
aV0000000000000071
p2324
aV0000000000000074
p2325
aV0000000000000075
p2326
aV0000000000000076
p2327
aV0000000000000077
p2328
aV0000000000000078
p2329
aV0000000000000079
p2330
aV0000000000000081
p2331
aV0000000000000083
p2332
aV0000000000000084
p2333
aV0000000000000085
p2334
aV0000000000000087
p2335
aV0000000000000089
p2336
aV0000000000000091
p2337
aV0000000000000093
p2338
aV0000000000000097
p2339
aV0000000000000098
p2340
aV0000000000000099
p2341
aV0000000000000100
p2342
aV0000000000000102
p2343
aV0000000000000104
p2344
aV0000000000000108
p2345
aV0000000000000109
p2346
aV0000000000000110
p2347
aV0000000000000112
p2348
aV0000000000000114
p2349
aV0000000000000115
p2350
aV0000000000000116
p2351
aV0000000000000117
p2352
asVou
p2353
(lp2354
V0000000000000016
p2355
aV0000000000000017
p2356
aV0000000000000018
p2357
asVhou
p2358
(lp2359
V0000000000000016
p2360
aV0000000000000017
p2361
aV0000000000000018
p2362
asVect
p2363
(lp2364
V0000000000000016
p2365
aV0000000000000017
p2366
aV0000000000000018
p2367
asVhourly
p2368
(lp2369
V0000000000000017
p2370
asVmisc
p2371
(lp2372
V0000000000000017
p2373
asVbreak
p2374
(lp2375
V0000000000000017
p2376
asVmonth
p2377
(lp2378
V0000000000000017
p2379
asVoffset
p2380
(lp2381
V0000000000000017
p2382
asVtxu
p2383
(lp2384
V0000000000000017
p2385
asVrec
p2386
(lp2387
V0000000000000017
p2388
asVapril
p2389
(lp2390
V0000000000000017
p2391
aV0000000000000026
p2392
aV0000000000000029
p2393
asVoo
p2394
(lp2395
V0000000000000017
p2396
asVbreakout
p2397
(lp2398
V0000000000000017
p2399
asVpjm
p2400
(lp2401
V0000000000000017
p2402
asVcapacity
p2403
(lp2404
V0000000000000017
p2405
asVmanitoba
p2406
(lp2407
V0000000000000017
p2408
asVhit
p2409
(lp2410
V0000000000000019
p2411
asVradar
p2412
(lp2413
V0000000000000019
p2414
asVscreen
p2415
(lp2416
V0000000000000019
p2417
asVreview
p2418
(lp2419
V0000000000000019
p2420
aV0000000000000022
p2421
asVprocess
p2422
(lp2423
V0000000000000019
p2424
aV0000000000000030
p2425
asVissues
p2426
(lp2427
V0000000000000019
p2428
asVpotential
p2429
(lp2430
V0000000000000019
p2431
asVfrank
p2432
(lp2433
V0000000000000019
p2434
aV0000000000000020
p2435
asVedward
p2436
(lp2437
V0000000000000019
p2438
asVhayden
p2439
(lp2440
V0000000000000019
p2441
asVaucoin
p2442
(lp2443
V0000000000000019
p2444
asVberney
p2445
(lp2446
V0000000000000019
p2447
aV0000000000000020
p2448
aV0000000000000032
p2449
asVexplaining
p2450
(lp2451
V0000000000000019
p2452
asVcommunication
p2453
(lp2454
V0000000000000019
p2455
asVteco
p2456
(lp2457
V0000000000000019
p2458
aV0000000000000020
p2459
aV0000000000000021
p2460
aV0000000000000087
p2461
aV0000000000000104
p2462
asVtonight
p2463
(lp2464
V0000000000000020
p2465
asVrevised
p2466
(lp2467
V0000000000000020
p2468
asVpm
p2469
(lp2470
V0000000000000020
p2471
aV0000000000000023
p2472
aV0000000000000027
p2473
aV0000000000000028
p2474
aV0000000000000035
p2475
aV0000000000000036
p2476
aV0000000000000039
p2477
aV0000000000000040
p2478
aV0000000000000042
p2479
aV0000000000000044
p2480
aV0000000000000046
p2481
aV0000000000000047
p2482
aV0000000000000056
p2483
aV0000000000000057
p2484
aV0000000000000058
p2485
aV0000000000000059
p2486
aV0000000000000060
p2487
aV0000000000000061
p2488
aV0000000000000062
p2489
aV0000000000000064
p2490
aV0000000000000065
p2491
aV0000000000000066
p2492
aV0000000000000067
p2493
aV0000000000000079
p2494
aV0000000000000080
p2495
aV0000000000000083
p2496
aV0000000000000084
p2497
aV0000000000000085
p2498
aV0000000000000086
p2499
aV0000000000000087
p2500
aV0000000000000091
p2501
aV0000000000000092
p2502
aV0000000000000094
p2503
aV0000000000000097
p2504
aV0000000000000101
p2505
aV0000000000000102
p2506
aV0000000000000103
p2507
aV0000000000000104
p2508
aV0000000000000106
p2509
aV0000000000000108
p2510
aV0000000000000109
p2511
aV0000000000000110
p2512
aV0000000000000112
p2513
aV0000000000000116
p2514
aV0000000000000117
p2515
aV0000000000000118
p2516
aV0000000000000119
p2517
aV0000000000000120
p2518
aV0000000000000121
p2519
asVbruce
p2520
(lp2521
V0000000000000020
p2522
aV0000000000000022
p2523
asVjanet
p2524
(lp2525
V0000000000000020
p2526
asVedith
p2527
(lp2528
V0000000000000020
p2529
asVjason
p2530
(lp2531
V0000000000000020
p2532
aV0000000000000021
p2533
asVmichelle
p2534
(lp2535
V0000000000000020
p2536
asVjoan
p2537
(lp2538
V0000000000000020
p2539
asVjohnson
p2540
(lp2541
V0000000000000020
p2542
asVeric
p2543
(lp2544
V0000000000000020
p2545
asVbronner
p2546
(lp2547
V0000000000000020
p2548
asVbusot
p2549
(lp2550
V0000000000000020
p2551
asVgeorge
p2552
(lp2553
V0000000000000020
p2554
aV0000000000000037
p2555
asVjennings
p2556
(lp2557
V0000000000000020
p2558
asVgentlemen
p2559
(lp2560
V0000000000000020
p2561
asVrough
p2562
(lp2563
V0000000000000020
p2564
asVdraft
p2565
(lp2566
V0000000000000020
p2567
asVpurposes
p2568
(lp2569
V0000000000000020
p2570
asVparalegal
p2571
(lp2572
V0000000000000020
p2573
asVinc
p2574
(lp2575
V0000000000000020
p2576
aV0000000000000026
p2577
asVphone
p2578
(lp2579
V0000000000000020
p2580
aV0000000000000024
p2581
aV0000000000000035
p2582
aV0000000000000040
p2583
asVfax
p2584
(lp2585
V0000000000000020
p2586
aV0000000000000024
p2587
aV0000000000000026
p2588
aV0000000000000027
p2589
aV0000000000000028
p2590
asVfrontera
p2591
(lp2592
V0000000000000020
p2593
aV0000000000000021
p2594
aV0000000000000022
p2595
asVagreement
p2596
(lp2597
V0000000000000020
p2598
aV0000000000000022
p2599
asVclean
p2600
(lp2601
V0000000000000020
p2602
asVscheduled
p2603
(lp2604
V0000000000000021
p2605
asVeb
p2606
(lp2607
V0000000000000021
p2608
aV0000000000000023
p2609
aV0000000000000026
p2610
aV0000000000000027
p2611
aV0000000000000028
p2612
aV0000000000000031
p2613
aV0000000000000037
p2614
aV0000000000000040
p2615
aV0000000000000042
p2616
aV0000000000000043
p2617
aV0000000000000046
p2618
aV0000000000000048
p2619
aV0000000000000052
p2620
aV0000000000000059
p2621
aV0000000000000061
p2622
aV0000000000000062
p2623
aV0000000000000066
p2624
aV0000000000000067
p2625
aV0000000000000075
p2626
aV0000000000000079
p2627
aV0000000000000081
p2628
aV0000000000000083
p2629
aV0000000000000087
p2630
aV0000000000000088
p2631
aV0000000000000093
p2632
aV0000000000000101
p2633
aV0000000000000104
p2634
aV0000000000000106
p2635
aV0000000000000108
p2636
aV0000000000000109
p2637
aV0000000000000111
p2638
aV0000000000000112
p2639
aV0000000000000118
p2640
aV0000000000000119
p2641
aV0000000000000121
p2642
aV0000000000000122
p2643
asVtomorrow
p2644
(lp2645
V0000000000000021
p2646
aV0000000000000024
p2647
asVthursday
p2648
(lp2649
V0000000000000021
p2650
aV0000000000000118
p2651
asVdiscuss
p2652
(lp2653
V0000000000000021
p2654
aV0000000000000022
p2655
asVdial
p2656
(lp2657
V0000000000000021
p2658
asVhaven
p2659
(lp2660
V0000000000000022
p2661
asVchance
p2662
(lp2663
V0000000000000022
p2664
asVstuart
p2665
(lp2666
V0000000000000022
p2667
asVzisman
p2668
(lp2669
V0000000000000022
p2670
asVcut
p2671
(lp2672
V0000000000000022
p2673
asVmorning
p2674
(lp2675
V0000000000000022
p2676
asVfree
p2677
(lp2678
V0000000000000022
p2679
asVdownload
p2680
(lp2681
V0000000000000022
p2682
asVmsn
p2683
(lp2684
V0000000000000022
p2685
asVexplorer
p2686
(lp2687
V0000000000000022
p2688
asVdear
p2689
(lp2690
V0000000000000023
p2691
asVsuccessfully
p2692
(lp2693
V0000000000000023
p2694
asVenrolled
p2695
(lp2696
V0000000000000023
p2697
asVcourse
p2698
(lp2699
V0000000000000023
p2700
asVfundamentals
p2701
(lp2702
V0000000000000023
p2703
asVcorporate
p2704
(lp2705
V0000000000000023
p2706
aV0000000000000027
p2707
asVfinance
p2708
(lp2709
V0000000000000023
p2710
asVdetails
p2711
(lp2712
V0000000000000023
p2713
aV0000000000000024
p2714
asVprovided
p2715
(lp2716
V0000000000000023
p2717
aV0000000000000097
p2718
asVtype
p2719
(lp2720
V0000000000000023
p2721
asVinstructor
p2722
(lp2723
V0000000000000023
p2724
asVled
p2725
(lp2726
V0000000000000023
p2727
asVcode
p2728
(lp2729
V0000000000000023
p2730
asVfin
p2731
(lp2732
V0000000000000023
p2733
asVsession
p2734
(lp2735
V0000000000000023
p2736
asVstarting
p2737
(lp2738
V0000000000000023
p2739
asVdate
p2740
(lp2741
V0000000000000023
p2742
aV0000000000000026
p2743
aV0000000000000027
p2744
aV0000000000000028
p2745
aV0000000000000031
p2746
aV0000000000000032
p2747
aV0000000000000033
p2748
aV0000000000000034
p2749
aV0000000000000035
p2750
aV0000000000000036
p2751
aV0000000000000037
p2752
aV0000000000000038
p2753
aV0000000000000039
p2754
aV0000000000000040
p2755
aV0000000000000041
p2756
aV0000000000000042
p2757
aV0000000000000043
p2758
aV0000000000000044
p2759
aV0000000000000045
p2760
aV0000000000000046
p2761
aV0000000000000047
p2762
aV0000000000000048
p2763
aV0000000000000049
p2764
aV0000000000000050
p2765
aV0000000000000051
p2766
aV0000000000000052
p2767
aV0000000000000053
p2768
aV0000000000000054
p2769
aV0000000000000055
p2770
aV0000000000000056
p2771
aV0000000000000057
p2772
aV0000000000000058
p2773
aV0000000000000059
p2774
aV0000000000000060
p2775
aV0000000000000061
p2776
aV0000000000000062
p2777
aV0000000000000063
p2778
aV0000000000000064
p2779
aV0000000000000065
p2780
aV0000000000000066
p2781
aV0000000000000067
p2782
aV0000000000000068
p2783
aV0000000000000069
p2784
aV0000000000000070
p2785
aV0000000000000071
p2786
aV0000000000000072
p2787
aV0000000000000073
p2788
aV0000000000000074
p2789
aV0000000000000075
p2790
aV0000000000000076
p2791
aV0000000000000077
p2792
aV0000000000000078
p2793
aV0000000000000079
p2794
aV0000000000000080
p2795
aV0000000000000081
p2796
aV0000000000000083
p2797
aV0000000000000084
p2798
aV0000000000000085
p2799
aV0000000000000086
p2800
aV0000000000000087
p2801
aV0000000000000088
p2802
aV0000000000000089
p2803
aV0000000000000090
p2804
aV0000000000000091
p2805
aV0000000000000092
p2806
aV0000000000000094
p2807
aV0000000000000095
p2808
aV0000000000000096
p2809
aV0000000000000097
p2810
aV0000000000000098
p2811
aV0000000000000099
p2812
aV0000000000000100
p2813
aV0000000000000102
p2814
aV0000000000000103
p2815
aV0000000000000104
p2816
aV0000000000000105
p2817
aV0000000000000106
p2818
aV0000000000000107
p2819
aV0000000000000108
p2820
aV0000000000000109
p2821
aV0000000000000110
p2822
aV0000000000000111
p2823
aV0000000000000112
p2824
aV0000000000000113
p2825
aV0000000000000114
p2826
aV0000000000000115
p2827
aV0000000000000116
p2828
aV0000000000000117
p2829
aV0000000000000120
p2830
asVnov
p2831
(lp2832
V0000000000000023
p2833
asVending
p2834
(lp2835
V0000000000000023
p2836
asVunits
p2837
(lp2838
V0000000000000023
p2839
asVlocation
p2840
(lp2841
V0000000000000023
p2842
asVbuilding
p2843
(lp2844
V0000000000000023
p2845
asVsmith
p2846
(lp2847
V0000000000000023
p2848
asVhouston
p2849
(lp2850
V0000000000000023
p2851
aV0000000000000025
p2852
aV0000000000000026
p2853
aV0000000000000027
p2854
aV0000000000000028
p2855
asVmeetings
p2856
(lp2857
V0000000000000023
p2858
aV0000000000000051
p2859
asVtime
p2860
(lp2861
V0000000000000023
p2862
aV0000000000000031
p2863
aV0000000000000032
p2864
aV0000000000000033
p2865
aV0000000000000034
p2866
aV0000000000000035
p2867
aV0000000000000036
p2868
aV0000000000000037
p2869
aV0000000000000038
p2870
aV0000000000000039
p2871
aV0000000000000040
p2872
aV0000000000000041
p2873
aV0000000000000042
p2874
aV0000000000000043
p2875
aV0000000000000044
p2876
aV0000000000000045
p2877
aV0000000000000046
p2878
aV0000000000000047
p2879
aV0000000000000048
p2880
aV0000000000000049
p2881
aV0000000000000050
p2882
aV0000000000000051
p2883
aV0000000000000052
p2884
aV0000000000000053
p2885
aV0000000000000054
p2886
aV0000000000000055
p2887
aV0000000000000056
p2888
aV0000000000000057
p2889
aV0000000000000058
p2890
aV0000000000000059
p2891
aV0000000000000060
p2892
aV0000000000000061
p2893
aV0000000000000062
p2894
aV0000000000000063
p2895
aV0000000000000064
p2896
aV0000000000000065
p2897
aV0000000000000066
p2898
aV0000000000000067
p2899
aV0000000000000068
p2900
aV0000000000000069
p2901
aV0000000000000071
p2902
aV0000000000000072
p2903
aV0000000000000073
p2904
aV0000000000000074
p2905
aV0000000000000075
p2906
aV0000000000000076
p2907
aV0000000000000077
p2908
aV0000000000000078
p2909
aV0000000000000079
p2910
aV0000000000000080
p2911
aV0000000000000081
p2912
aV0000000000000083
p2913
aV0000000000000084
p2914
aV0000000000000085
p2915
aV0000000000000086
p2916
aV0000000000000087
p2917
aV0000000000000088
p2918
aV0000000000000090
p2919
aV0000000000000091
p2920
aV0000000000000092
p2921
aV0000000000000094
p2922
aV0000000000000095
p2923
aV0000000000000096
p2924
aV0000000000000097
p2925
aV0000000000000098
p2926
aV0000000000000099
p2927
aV0000000000000100
p2928
aV0000000000000101
p2929
aV0000000000000102
p2930
aV0000000000000103
p2931
aV0000000000000104
p2932
aV0000000000000105
p2933
aV0000000000000106
p2934
aV0000000000000107
p2935
aV0000000000000108
p2936
aV0000000000000109
p2937
aV0000000000000110
p2938
aV0000000000000111
p2939
aV0000000000000112
p2940
aV0000000000000113
p2941
aV0000000000000114
p2942
aV0000000000000115
p2943
aV0000000000000116
p2944
aV0000000000000117
p2945
aV0000000000000118
p2946
aV0000000000000119
p2947
aV0000000000000120
p2948
aV0000000000000121
p2949
aV0000000000000122
p2950
asVinstructors
p2951
(lp2952
V0000000000000023
p2953
asVrooms
p2954
(lp2955
V0000000000000023
p2956
asVmeeting
p2957
(lp2958
V0000000000000023
p2959
aV0000000000000048
p2960
aV0000000000000053
p2961
aV0000000000000072
p2962
aV0000000000000084
p2963
aV0000000000000101
p2964
aV0000000000000104
p2965
aV0000000000000106
p2966
asVreminder
p2967
(lp2968
V0000000000000023
p2969
aV0000000000000033
p2970
aV0000000000000034
p2971
aV0000000000000049
p2972
aV0000000000000050
p2973
aV0000000000000051
p2974
aV0000000000000054
p2975
aV0000000000000063
p2976
aV0000000000000068
p2977
aV0000000000000069
p2978
aV0000000000000071
p2979
aV0000000000000076
p2980
aV0000000000000077
p2981
aV0000000000000078
p2982
aV0000000000000090
p2983
aV0000000000000099
p2984
aV0000000000000100
p2985
aV0000000000000115
p2986
aV0000000000000117
p2987
aV0000000000000120
p2988
asVstarts
p2989
(lp2990
V0000000000000023
p2991
asVhi
p2992
(lp2993
V0000000000000024
p2994
asVhotel
p2995
(lp2996
V0000000000000024
p2997
aV0000000000000026
p2998
aV0000000000000027
p2999
aV0000000000000028
p3000
asVnearest
p3001
(lp3002
V0000000000000024
p3003
asVoslo
p3004
(lp3005
V0000000000000024
p3006
aV0000000000000026
p3007
aV0000000000000028
p3008
aV0000000000000114
p3009
asVminute
p3010
(lp3011
V0000000000000024
p3012
asVwalk
p3013
(lp3014
V0000000000000024
p3015
asVaway
p3016
(lp3017
V0000000000000024
p3018
asVscandic
p3019
(lp3020
V0000000000000024
p3021
aV0000000000000028
p3022
asVsj
p3023
(lp3024
V0000000000000024
p3025
asVlyst
p3026
(lp3027
V0000000000000024
p3028
asVplass
p3029
(lp3030
V0000000000000024
p3031
aV0000000000000028
p3032
asVpo
p3033
(lp3034
V0000000000000024
p3035
asVbox
p3036
(lp3037
V0000000000000024
p3038
asVsk
p3039
(lp3040
V0000000000000024
p3041
asVyen
p3042
(lp3043
V0000000000000024
p3044
asVnorway
p3045
(lp3046
V0000000000000024
p3047
aV0000000000000026
p3048
aV0000000000000028
p3049
asVbest
p3050
(lp3051
V0000000000000024
p3052
asVway
p3053
(lp3054
V0000000000000024
p3055
aV0000000000000025
p3056
asVairport
p3057
(lp3058
V0000000000000024
p3059
aV0000000000000026
p3060
aV0000000000000028
p3061
aV0000000000000117
p3062
asVexpress
p3063
(lp3064
V0000000000000024
p3065
asVrail
p3066
(lp3067
V0000000000000024
p3068
asVservice
p3069
(lp3070
V0000000000000024
p3071
aV0000000000000026
p3072
aV0000000000000028
p3073
aV0000000000000029
p3074
aV0000000000000030
p3075
asVskoyen
p3076
(lp3077
V0000000000000024
p3078
asVgoes
p3079
(lp3080
V0000000000000024
p3081
asVevery
p3082
(lp3083
V0000000000000024
p3084
asVminutes
p3085
(lp3086
V0000000000000024
p3087
asVtakes
p3088
(lp3089
V0000000000000024
p3090
aV0000000000000030
p3091
asVtickets
p3092
(lp3093
V0000000000000024
p3094
asVeveryone
p3095
(lp3096
V0000000000000024
p3097
asVspeaks
p3098
(lp3099
V0000000000000024
p3100
asVenglish
p3101
(lp3102
V0000000000000024
p3103
asVask
p3104
(lp3105
V0000000000000024
p3106
aV0000000000000122
p3107
asVjames
p3108
(lp3109
V0000000000000024
p3110
asVmaternity
p3111
(lp3112
V0000000000000024
p3113
asVleave
p3114
(lp3115
V0000000000000024
p3116
aV0000000000000120
p3117
asVteresa
p3118
(lp3119
V0000000000000024
p3120
asVchanging
p3121
(lp3122
V0000000000000025
p3123
asVlives
p3124
(lp3125
V0000000000000025
p3126
asVemployee
p3127
(lp3128
V0000000000000025
p3129
asVpayment
p3130
(lp3131
V0000000000000025
p3132
aV0000000000000071
p3133
asVmethod
p3134
(lp3135
V0000000000000025
p3136
asVdeduct
p3137
(lp3138
V0000000000000025
p3139
asVportion
p3140
(lp3141
V0000000000000025
p3142
asVpaycheck
p3143
(lp3144
V0000000000000025
p3145
asVgiving
p3146
(lp3147
V0000000000000025
p3148
asVroster
p3149
(lp3150
V0000000000000025
p3151
asVlisted
p3152
(lp3153
V0000000000000025
p3154
asVclub
p3155
(lp3156
V0000000000000025
p3157
asVbronze
p3158
(lp3159
V0000000000000025
p3160
asVlevel
p3161
(lp3162
V0000000000000025
p3163
asVmake
p3164
(lp3165
V0000000000000025
p3166
asVdifference
p3167
(lp3168
V0000000000000025
p3169
asVmailing
p3170
(lp3171
V0000000000000025
p3172
asVaddress
p3173
(lp3174
V0000000000000025
p3175
aV0000000000000030
p3176
asVgiddings
p3177
(lp3178
V0000000000000025
p3179
asVln
p3180
(lp3181
V0000000000000025
p3182
asVtx
p3183
(lp3184
V0000000000000025
p3185
aV0000000000000026
p3186
aV0000000000000027
p3187
aV0000000000000028
p3188
asVdonation
p3189
(lp3190
V0000000000000025
p3191
asVdesignated
p3192
(lp3193
V0000000000000025
p3194
asVunited
p3195
(lp3196
V0000000000000025
p3197
aV0000000000000027
p3198
asVtexas
p3199
(lp3200
V0000000000000025
p3201
aV0000000000000028
p3202
asVgulf
p3203
(lp3204
V0000000000000025
p3205
asVcoast
p3206
(lp3207
V0000000000000025
p3208
asVwritten
p3209
(lp3210
V0000000000000025
p3211
asVcontribution
p3212
(lp3213
V0000000000000025
p3214
asVyes
p3215
(lp3216
V0000000000000025
p3217
asVlife
p3218
(lp3219
V0000000000000025
p3220
asVmoments
p3221
(lp3222
V0000000000000025
p3223
asVstand
p3224
(lp3225
V0000000000000025
p3226
asVthings
p3227
(lp3228
V0000000000000025
p3229
asVothers
p3230
(lp3231
V0000000000000025
p3232
asVhenry
p3233
(lp3234
V0000000000000025
p3235
asVdrummond
p3236
(lp3237
V0000000000000025
p3238
asVplans
p3239
(lp3240
V0000000000000026
p3241
asVagency
p3242
(lp3243
V0000000000000026
p3244
aV0000000000000028
p3245
asVpark
p3246
(lp3247
V0000000000000026
p3248
aV0000000000000027
p3249
aV0000000000000028
p3250
asVagentid
p3251
(lp3252
V0000000000000026
p3253
asVrespond
p3254
(lp3255
V0000000000000026
p3256
asVewing
p3257
(lp3258
V0000000000000026
p3259
asVjd
p3260
(lp3261
V0000000000000026
p3262
aV0000000000000028
p3263
asVbooking
p3264
(lp3265
V0000000000000026
p3266
aV0000000000000027
p3267
aV0000000000000028
p3268
asVref
p3269
(lp3270
V0000000000000026
p3271
aV0000000000000027
p3272
aV0000000000000028
p3273
asVzkusts
p3274
(lp3275
V0000000000000026
p3276
aV0000000000000028
p3277
asVsuite
p3278
(lp3279
V0000000000000026
p3280
aV0000000000000028
p3281
asVdepart
p3282
(lp3283
V0000000000000026
p3284
aV0000000000000028
p3285
asVarrive
p3286
(lp3287
V0000000000000026
p3288
aV0000000000000028
p3289
aV0000000000000100
p3290
asVair
p3291
(lp3292
V0000000000000026
p3293
aV0000000000000028
p3294
asVfrance
p3295
(lp3296
V0000000000000026
p3297
aV0000000000000028
p3298
asVparis
p3299
(lp3300
V0000000000000026
p3301
aV0000000000000028
p3302
aV0000000000000100
p3303
aV0000000000000114
p3304
asVaf
p3305
(lp3306
V0000000000000026
p3307
aV0000000000000028
p3308
asVfri
p3309
(lp3310
V0000000000000026
p3311
aV0000000000000028
p3312
asVbush
p3313
(lp3314
V0000000000000026
p3315
aV0000000000000028
p3316
asVinterco
p3317
(lp3318
V0000000000000026
p3319
aV0000000000000028
p3320
asVcharles
p3321
(lp3322
V0000000000000026
p3323
aV0000000000000028
p3324
asVde
p3325
(lp3326
V0000000000000026
p3327
aV0000000000000028
p3328
asVgau
p3329
(lp3330
V0000000000000026
p3331
aV0000000000000028
p3332
asVnon
p3333
(lp3334
V0000000000000026
p3335
aV0000000000000028
p3336
asVsmoking
p3337
(lp3338
V0000000000000026
p3339
aV0000000000000028
p3340
asVterminal
p3341
(lp3342
V0000000000000026
p3343
aV0000000000000028
p3344
asVdom
p3345
(lp3346
V0000000000000026
p3347
aV0000000000000028
p3348
asVmeal
p3349
(lp3350
V0000000000000026
p3351
aV0000000000000028
p3352
asVbreakfast
p3353
(lp3354
V0000000000000026
p3355
aV0000000000000028
p3356
asVstop
p3357
(lp3358
V0000000000000026
p3359
aV0000000000000028
p3360
asVreservation
p3361
(lp3362
V0000000000000026
p3363
aV0000000000000028
p3364
asVduration
p3365
(lp3366
V0000000000000026
p3367
aV0000000000000028
p3368
aV0000000000000070
p3369
aV0000000000000089
p3370
asVaircraft
p3371
(lp3372
V0000000000000026
p3373
aV0000000000000028
p3374
asVairbus
p3375
(lp3376
V0000000000000026
p3377
aV0000000000000028
p3378
asVindustrie
p3379
(lp3380
V0000000000000026
p3381
aV0000000000000028
p3382
asVseat
p3383
(lp3384
V0000000000000026
p3385
aV0000000000000028
p3386
asVrue
p3387
(lp3388
V0000000000000026
p3389
aV0000000000000028
p3390
asVcastiglione
p3391
(lp3392
V0000000000000026
p3393
aV0000000000000028
p3394
asVtelephone
p3395
(lp3396
V0000000000000026
p3397
aV0000000000000027
p3398
aV0000000000000028
p3399
asVconfirmation
p3400
(lp3401
V0000000000000026
p3402
aV0000000000000027
p3403
aV0000000000000028
p3404
asVsingle
p3405
(lp3406
V0000000000000026
p3407
aV0000000000000027
p3408
aV0000000000000028
p3409
asVroom
p3410
(lp3411
V0000000000000026
p3412
aV0000000000000027
p3413
aV0000000000000028
p3414
aV0000000000000101
p3415
asVhfh
p3416
(lp3417
V0000000000000026
p3418
aV0000000000000028
p3419
asVfrf
p3420
(lp3421
V0000000000000026
p3422
aV0000000000000028
p3423
asVper
p3424
(lp3425
V0000000000000026
p3426
aV0000000000000027
p3427
aV0000000000000028
p3428
asVnight
p3429
(lp3430
V0000000000000026
p3431
aV0000000000000027
p3432
aV0000000000000028
p3433
asVgiven
p3434
(lp3435
V0000000000000026
p3436
aV0000000000000027
p3437
aV0000000000000028
p3438
asVcorp
p3439
(lp3440
V0000000000000026
p3441
aV0000000000000027
p3442
aV0000000000000028
p3443
asVnonsmk
p3444
(lp3445
V0000000000000026
p3446
aV0000000000000027
p3447
aV0000000000000028
p3448
asVqueen
p3449
(lp3450
V0000000000000026
p3451
aV0000000000000028
p3452
asVbeds
p3453
(lp3454
V0000000000000026
p3455
aV0000000000000028
p3456
asVsun
p3457
(lp3458
V0000000000000026
p3459
aV0000000000000027
p3460
aV0000000000000028
p3461
asVowner
p3462
(lp3463
V0000000000000026
p3464
aV0000000000000028
p3465
asVys
p3466
(lp3467
V0000000000000026
p3468
aV0000000000000028
p3469
asVproteus
p3470
(lp3471
V0000000000000026
p3472
aV0000000000000028
p3473
asVfokker
p3474
(lp3475
V0000000000000026
p3476
aV0000000000000028
p3477
asVstortingsgten
p3478
(lp3479
V0000000000000026
p3480
asVreference
p3481
(lp3482
V0000000000000026
p3483
aV0000000000000027
p3484
aV0000000000000029
p3485
asVsize
p3486
(lp3487
V0000000000000026
p3488
asVbed
p3489
(lp3490
V0000000000000026
p3491
aV0000000000000028
p3492
asVnok
p3493
(lp3494
V0000000000000026
p3495
aV0000000000000028
p3496
asVfinnair
p3497
(lp3498
V0000000000000026
p3499
aV0000000000000028
p3500
asVhelsinki
p3501
(lp3502
V0000000000000026
p3503
aV0000000000000028
p3504
asVay
p3505
(lp3506
V0000000000000026
p3507
aV0000000000000028
p3508
asVthu
p3509
(lp3510
V0000000000000026
p3511
aV0000000000000028
p3512
asVvanta
p3513
(lp3514
V0000000000000026
p3515
aV0000000000000028
p3516
asVmc
p3517
(lp3518
V0000000000000026
p3519
aV0000000000000028
p3520
asVdonnell
p3521
(lp3522
V0000000000000026
p3523
aV0000000000000028
p3524
asVmd
p3525
(lp3526
V0000000000000026
p3527
aV0000000000000028
p3528
asVcold
p3529
(lp3530
V0000000000000026
p3531
aV0000000000000028
p3532
asVboeing
p3533
(lp3534
V0000000000000026
p3535
aV0000000000000028
p3536
asVsnack
p3537
(lp3538
V0000000000000026
p3539
aV0000000000000028
p3540
asVmiscellaneous
p3541
(lp3542
V0000000000000026
p3543
aV0000000000000027
p3544
aV0000000000000028
p3545
asVsep
p3546
(lp3547
V0000000000000026
p3548
aV0000000000000028
p3549
asVsat
p3550
(lp3551
V0000000000000026
p3552
aV0000000000000028
p3553
asVtap
p3554
(lp3555
V0000000000000026
p3556
aV0000000000000027
p3557
aV0000000000000028
p3558
asVfeyxx
p3559
(lp3560
V0000000000000026
p3561
aV0000000000000028
p3562
asVgf
p3563
(lp3564
V0000000000000026
p3565
aV0000000000000028
p3566
asVer
p3567
(lp3568
V0000000000000026
p3569
aV0000000000000027
p3570
aV0000000000000028
p3571
asVfrequent
p3572
(lp3573
V0000000000000026
p3574
aV0000000000000028
p3575
asVflyer
p3576
(lp3577
V0000000000000026
p3578
aV0000000000000028
p3579
asVcowf
p3580
(lp3581
V0000000000000026
p3582
aV0000000000000028
p3583
asVassistant
p3584
(lp3585
V0000000000000026
p3586
aV0000000000000027
p3587
aV0000000000000028
p3588
asVvincent
p3589
(lp3590
V0000000000000026
p3591
aV0000000000000028
p3592
asVreservations
p3593
(lp3594
V0000000000000027
p3595
asVlh
p3596
(lp3597
V0000000000000027
p3598
asVyt
p3599
(lp3600
V0000000000000027
p3601
asVoct
p3602
(lp3603
V0000000000000027
p3604
asVhamilton
p3605
(lp3606
V0000000000000027
p3607
asVplace
p3608
(lp3609
V0000000000000027
p3610
asVhyde
p3611
(lp3612
V0000000000000027
p3613
asVlondon
p3614
(lp3615
V0000000000000027
p3616
aV0000000000000047
p3617
aV0000000000000122
p3618
asVengland
p3619
(lp3620
V0000000000000027
p3621
asVoqy
p3622
(lp3623
V0000000000000027
p3624
asVkingdom
p3625
(lp3626
V0000000000000027
p3627
asVtelex
p3628
(lp3629
V0000000000000027
p3630
asVscorenc
p3631
(lp3632
V0000000000000027
p3633
asVenr
p3634
(lp3635
V0000000000000027
p3636
asVgbp
p3637
(lp3638
V0000000000000027
p3639
asVrqst
p3640
(lp3641
V0000000000000027
p3642
aV0000000000000028
p3643
asVking
p3644
(lp3645
V0000000000000027
p3646
asVavoid
p3647
(lp3648
V0000000000000027
p3649
asVbilling
p3650
(lp3651
V0000000000000027
p3652
asVcancel
p3653
(lp3654
V0000000000000027
p3655
aV0000000000000028
p3656
asVday
p3657
(lp3658
V0000000000000027
p3659
aV0000000000000028
p3660
aV0000000000000051
p3661
aV0000000000000065
p3662
aV0000000000000095
p3663
asVarrival
p3664
(lp3665
V0000000000000027
p3666
aV0000000000000028
p3667
asVkathryn
p3668
(lp3669
V0000000000000027
p3670
asVjenkinson
p3671
(lp3672
V0000000000000027
p3673
asVintl
p3674
(lp3675
V0000000000000027
p3676
aV0000000000000028
p3677
asVtvlrs
p3678
(lp3679
V0000000000000027
p3680
aV0000000000000028
p3681
asVcarry
p3682
(lp3683
V0000000000000027
p3684
aV0000000000000028
p3685
asVsos
p3686
(lp3687
V0000000000000027
p3688
aV0000000000000028
p3689
asVwallet
p3690
(lp3691
V0000000000000027
p3692
aV0000000000000028
p3693
asVassistance
p3694
(lp3695
V0000000000000027
p3696
aV0000000000000028
p3697
asVinfo
p3698
(lp3699
V0000000000000027
p3700
aV0000000000000028
p3701
asVcall
p3702
(lp3703
V0000000000000027
p3704
aV0000000000000028
p3705
aV0000000000000049
p3706
aV0000000000000050
p3707
aV0000000000000055
p3708
aV0000000000000059
p3709
aV0000000000000063
p3710
aV0000000000000076
p3711
aV0000000000000082
p3712
aV0000000000000115
p3713
asVmedical
p3714
(lp3715
V0000000000000027
p3716
aV0000000000000028
p3717
asVemergency
p3718
(lp3719
V0000000000000027
p3720
aV0000000000000028
p3721
asVcollect
p3722
(lp3723
V0000000000000027
p3724
aV0000000000000028
p3725
asVfares
p3726
(lp3727
V0000000000000027
p3728
aV0000000000000028
p3729
asVsubject
p3730
(lp3731
V0000000000000027
p3732
aV0000000000000028
p3733
asVticketed
p3734
(lp3735
V0000000000000027
p3736
aV0000000000000028
p3737
asVpurchased
p3738
(lp3739
V0000000000000027
p3740
aV0000000000000028
p3741
asVlinda
p3742
(lp3743
V0000000000000027
p3744
asVharris
p3745
(lp3746
V0000000000000027
p3747
asVinternational
p3748
(lp3749
V0000000000000027
p3750
aV0000000000000028
p3751
asVdirect
p3752
(lp3753
V0000000000000027
p3754
aV0000000000000030
p3755
asVline
p3756
(lp3757
V0000000000000027
p3758
asVext
p3759
(lp3760
V0000000000000027
p3761
aV0000000000000082
p3762
asVjerry
p3763
(lp3764
V0000000000000028
p3765
asVdunn
p3766
(lp3767
V0000000000000028
p3768
asVttl
p3769
(lp3770
V0000000000000028
p3771
asVtkts
p3772
(lp3773
V0000000000000028
p3774
asVpaper
p3775
(lp3776
V0000000000000028
p3777
asVrequires
p3778
(lp3779
V0000000000000028
p3780
asVcancellation
p3781
(lp3782
V0000000000000028
p3783
asVsjoelyst
p3784
(lp3785
V0000000000000028
p3786
asVqo
p3787
(lp3788
V0000000000000028
p3789
asVusm
p3790
(lp3791
V0000000000000028
p3792
asVtsa
p3793
(lp3794
V0000000000000028
p3795
asVpolicy
p3796
(lp3797
V0000000000000028
p3798
asVnonsmkg
p3799
(lp3800
V0000000000000028
p3801
asVticket
p3802
(lp3803
V0000000000000028
p3804
asVreflects
p3805
(lp3806
V0000000000000028
p3807
asVnegotiated
p3808
(lp3809
V0000000000000028
p3810
asVdiscount
p3811
(lp3812
V0000000000000028
p3813
asVpublished
p3814
(lp3815
V0000000000000028
p3816
asVfare
p3817
(lp3818
V0000000000000028
p3819
asVcitizen
p3820
(lp3821
V0000000000000028
p3822
asVrequirements
p3823
(lp3824
V0000000000000028
p3825
asVpassport
p3826
(lp3827
V0000000000000028
p3828
asVvalid
p3829
(lp3830
V0000000000000028
p3831
asVmonths
p3832
(lp3833
V0000000000000028
p3834
asVbeyond
p3835
(lp3836
V0000000000000028
p3837
asVreturn
p3838
(lp3839
V0000000000000028
p3840
asVverify
p3841
(lp3842
V0000000000000028
p3843
asVvisa
p3844
(lp3845
V0000000000000028
p3846
asVdept
p3847
(lp3848
V0000000000000028
p3849
asVsam
p3850
(lp3851
V0000000000000028
p3852
asVhr
p3853
(lp3854
V0000000000000028
p3855
asVflights
p3856
(lp3857
V0000000000000028
p3858
asVreconfirm
p3859
(lp3860
V0000000000000028
p3861
asVlocally
p3862
(lp3863
V0000000000000028
p3864
asVcarrier
p3865
(lp3866
V0000000000000028
p3867
asVairline
p3868
(lp3869
V0000000000000028
p3870
asVhours
p3871
(lp3872
V0000000000000028
p3873
asVdeparture
p3874
(lp3875
V0000000000000028
p3876
asVfailure
p3877
(lp3878
V0000000000000028
p3879
asVresult
p3880
(lp3881
V0000000000000028
p3882
asVconcierge
p3883
(lp3884
V0000000000000028
p3885
asVfront
p3886
(lp3887
V0000000000000028
p3888
asVdesk
p3889
(lp3890
V0000000000000028
p3891
aV0000000000000053
p3892
aV0000000000000122
p3893
asVlamar
p3894
(lp3895
V0000000000000028
p3896
asVste
p3897
(lp3898
V0000000000000028
p3899
asVordering
p3900
(lp3901
V0000000000000029
p3902
asVbegin
p3903
(lp3904
V0000000000000029
p3905
asVprocessing
p3906
(lp3907
V0000000000000029
p3908
aV0000000000000030
p3909
asVorder
p3910
(lp3911
V0000000000000029
p3912
aV0000000000000030
p3913
aV0000000000000122
p3914
asVimmediately
p3915
(lp3916
V0000000000000029
p3917
asVnumbers
p3918
(lp3919
V0000000000000029
p3920
asVreesa
p3921
(lp3922
V0000000000000029
p3923
asVqualia
p3924
(lp3925
V0000000000000029
p3926
asVplaced
p3927
(lp3928
V0000000000000029
p3929
aV0000000000000030
p3930
asVcontact
p3931
(lp3932
V0000000000000029
p3933
asVcrate
p3934
(lp3935
V0000000000000029
p3936
asVbarrel
p3937
(lp3938
V0000000000000029
p3939
asVcustomer
p3940
(lp3941
V0000000000000029
p3942
aV0000000000000030
p3943
asVdefault
p3944
(lp3945
V0000000000000029
p3946
asVrecent
p3947
(lp3948
V0000000000000030
p3949
asVyahoo
p3950
(lp3951
V0000000000000030
p3952
asVshopping
p3953
(lp3954
V0000000000000030
p3955
asValldirect
p3956
(lp3957
V0000000000000030
p3958
asVprocessed
p3959
(lp3960
V0000000000000030
p3961
asVusually
p3962
(lp3963
V0000000000000030
p3964
asVdays
p3965
(lp3966
V0000000000000030
p3967
aV0000000000000070
p3968
aV0000000000000089
p3969
asVcompleted
p3970
(lp3971
V0000000000000030
p3972
asVdepartment
p3973
(lp3974
V0000000000000030
p3975
asVsubmitted
p3976
(lp3977
V0000000000000030
p3978
asVnotify
p3979
(lp3980
V0000000000000030
p3981
asVshipped
p3982
(lp3983
V0000000000000030
p3984
asVshipping
p3985
(lp3986
V0000000000000030
p3987
asVtimes
p3988
(lp3989
V0000000000000030
p3990
asVvisit
p3991
(lp3992
V0000000000000030
p3993
asVweb
p3994
(lp3995
V0000000000000030
p3996
asVsite
p3997
(lp3998
V0000000000000030
p3999
asVvisiting
p4000
(lp4001
V0000000000000030
p4002
asVgreat
p4003
(lp4004
V0000000000000030
p4005
asVselection
p4006
(lp4007
V0000000000000030
p4008
asVbetter
p4009
(lp4010
V0000000000000030
p4011
asVprices
p4012
(lp4013
V0000000000000030
p4014
asVcalendar
p4015
(lp4016
V0000000000000031
p4017
aV0000000000000032
p4018
aV0000000000000033
p4019
aV0000000000000034
p4020
aV0000000000000035
p4021
aV0000000000000036
p4022
aV0000000000000037
p4023
aV0000000000000038
p4024
aV0000000000000039
p4025
aV0000000000000040
p4026
aV0000000000000041
p4027
aV0000000000000042
p4028
aV0000000000000043
p4029
aV0000000000000044
p4030
aV0000000000000045
p4031
aV0000000000000046
p4032
aV0000000000000047
p4033
aV0000000000000048
p4034
aV0000000000000049
p4035
aV0000000000000050
p4036
aV0000000000000051
p4037
aV0000000000000052
p4038
aV0000000000000053
p4039
aV0000000000000054
p4040
aV0000000000000055
p4041
aV0000000000000056
p4042
aV0000000000000057
p4043
aV0000000000000058
p4044
aV0000000000000059
p4045
aV0000000000000060
p4046
aV0000000000000061
p4047
aV0000000000000062
p4048
aV0000000000000063
p4049
aV0000000000000064
p4050
aV0000000000000065
p4051
aV0000000000000066
p4052
aV0000000000000067
p4053
aV0000000000000068
p4054
aV0000000000000069
p4055
aV0000000000000070
p4056
aV0000000000000071
p4057
aV0000000000000072
p4058
aV0000000000000073
p4059
aV0000000000000074
p4060
aV0000000000000075
p4061
aV0000000000000076
p4062
aV0000000000000077
p4063
aV0000000000000078
p4064
aV0000000000000079
p4065
aV0000000000000080
p4066
aV0000000000000081
p4067
aV0000000000000083
p4068
aV0000000000000084
p4069
aV0000000000000085
p4070
aV0000000000000086
p4071
aV0000000000000087
p4072
aV0000000000000088
p4073
aV0000000000000089
p4074
aV0000000000000090
p4075
aV0000000000000091
p4076
aV0000000000000092
p4077
aV0000000000000094
p4078
aV0000000000000095
p4079
aV0000000000000096
p4080
aV0000000000000097
p4081
aV0000000000000098
p4082
aV0000000000000099
p4083
aV0000000000000100
p4084
aV0000000000000102
p4085
aV0000000000000103
p4086
aV0000000000000104
p4087
aV0000000000000105
p4088
aV0000000000000106
p4089
aV0000000000000107
p4090
aV0000000000000108
p4091
aV0000000000000109
p4092
aV0000000000000110
p4093
aV0000000000000111
p4094
aV0000000000000112
p4095
aV0000000000000113
p4096
aV0000000000000114
p4097
aV0000000000000115
p4098
aV0000000000000116
p4099
aV0000000000000117
p4100
aV0000000000000120
p4101
asVentry
p4102
(lp4103
V0000000000000031
p4104
aV0000000000000032
p4105
aV0000000000000033
p4106
aV0000000000000034
p4107
aV0000000000000035
p4108
aV0000000000000036
p4109
aV0000000000000037
p4110
aV0000000000000038
p4111
aV0000000000000039
p4112
aV0000000000000040
p4113
aV0000000000000041
p4114
aV0000000000000042
p4115
aV0000000000000043
p4116
aV0000000000000044
p4117
aV0000000000000045
p4118
aV0000000000000046
p4119
aV0000000000000047
p4120
aV0000000000000048
p4121
aV0000000000000049
p4122
aV0000000000000050
p4123
aV0000000000000051
p4124
aV0000000000000052
p4125
aV0000000000000053
p4126
aV0000000000000054
p4127
aV0000000000000055
p4128
aV0000000000000056
p4129
aV0000000000000057
p4130
aV0000000000000058
p4131
aV0000000000000059
p4132
aV0000000000000060
p4133
aV0000000000000061
p4134
aV0000000000000062
p4135
aV0000000000000063
p4136
aV0000000000000064
p4137
aV0000000000000065
p4138
aV0000000000000066
p4139
aV0000000000000067
p4140
aV0000000000000068
p4141
aV0000000000000069
p4142
aV0000000000000070
p4143
aV0000000000000071
p4144
aV0000000000000072
p4145
aV0000000000000073
p4146
aV0000000000000074
p4147
aV0000000000000075
p4148
aV0000000000000076
p4149
aV0000000000000077
p4150
aV0000000000000078
p4151
aV0000000000000079
p4152
aV0000000000000080
p4153
aV0000000000000081
p4154
aV0000000000000083
p4155
aV0000000000000084
p4156
aV0000000000000085
p4157
aV0000000000000086
p4158
aV0000000000000087
p4159
aV0000000000000088
p4160
aV0000000000000089
p4161
aV0000000000000090
p4162
aV0000000000000091
p4163
aV0000000000000092
p4164
aV0000000000000094
p4165
aV0000000000000095
p4166
aV0000000000000096
p4167
aV0000000000000097
p4168
aV0000000000000098
p4169
aV0000000000000099
p4170
aV0000000000000100
p4171
aV0000000000000102
p4172
aV0000000000000103
p4173
aV0000000000000104
p4174
aV0000000000000105
p4175
aV0000000000000106
p4176
aV0000000000000107
p4177
aV0000000000000108
p4178
aV0000000000000109
p4179
aV0000000000000110
p4180
aV0000000000000111
p4181
aV0000000000000112
p4182
aV0000000000000113
p4183
aV0000000000000114
p4184
aV0000000000000115
p4185
aV0000000000000116
p4186
aV0000000000000117
p4187
aV0000000000000120
p4188
asVappointment
p4189
(lp4190
V0000000000000031
p4191
aV0000000000000032
p4192
aV0000000000000035
p4193
aV0000000000000037
p4194
aV0000000000000040
p4195
aV0000000000000041
p4196
aV0000000000000042
p4197
aV0000000000000043
p4198
aV0000000000000044
p4199
aV0000000000000045
p4200
aV0000000000000046
p4201
aV0000000000000048
p4202
aV0000000000000052
p4203
aV0000000000000055
p4204
aV0000000000000056
p4205
aV0000000000000058
p4206
aV0000000000000059
p4207
aV0000000000000060
p4208
aV0000000000000061
p4209
aV0000000000000062
p4210
aV0000000000000065
p4211
aV0000000000000066
p4212
aV0000000000000067
p4213
aV0000000000000073
p4214
aV0000000000000074
p4215
aV0000000000000075
p4216
aV0000000000000079
p4217
aV0000000000000080
p4218
aV0000000000000081
p4219
aV0000000000000083
p4220
aV0000000000000086
p4221
aV0000000000000087
p4222
aV0000000000000088
p4223
aV0000000000000091
p4224
aV0000000000000092
p4225
aV0000000000000094
p4226
aV0000000000000095
p4227
aV0000000000000096
p4228
aV0000000000000097
p4229
aV0000000000000098
p4230
aV0000000000000103
p4231
aV0000000000000105
p4232
aV0000000000000106
p4233
aV0000000000000107
p4234
aV0000000000000108
p4235
aV0000000000000109
p4236
aV0000000000000110
p4237
aV0000000000000111
p4238
aV0000000000000112
p4239
aV0000000000000113
p4240
aV0000000000000114
p4241
asVdescription
p4242
(lp4243
V0000000000000031
p4244
aV0000000000000032
p4245
aV0000000000000033
p4246
aV0000000000000034
p4247
aV0000000000000035
p4248
aV0000000000000036
p4249
aV0000000000000037
p4250
aV0000000000000038
p4251
aV0000000000000039
p4252
aV0000000000000040
p4253
aV0000000000000041
p4254
aV0000000000000042
p4255
aV0000000000000043
p4256
aV0000000000000044
p4257
aV0000000000000045
p4258
aV0000000000000046
p4259
aV0000000000000047
p4260
aV0000000000000048
p4261
aV0000000000000049
p4262
aV0000000000000050
p4263
aV0000000000000051
p4264
aV0000000000000052
p4265
aV0000000000000053
p4266
aV0000000000000054
p4267
aV0000000000000055
p4268
aV0000000000000056
p4269
aV0000000000000057
p4270
aV0000000000000058
p4271
aV0000000000000059
p4272
aV0000000000000060
p4273
aV0000000000000061
p4274
aV0000000000000062
p4275
aV0000000000000063
p4276
aV0000000000000064
p4277
aV0000000000000065
p4278
aV0000000000000066
p4279
aV0000000000000067
p4280
aV0000000000000068
p4281
aV0000000000000069
p4282
aV0000000000000070
p4283
aV0000000000000071
p4284
aV0000000000000072
p4285
aV0000000000000073
p4286
aV0000000000000074
p4287
aV0000000000000075
p4288
aV0000000000000076
p4289
aV0000000000000077
p4290
aV0000000000000078
p4291
aV0000000000000079
p4292
aV0000000000000080
p4293
aV0000000000000081
p4294
aV0000000000000083
p4295
aV0000000000000084
p4296
aV0000000000000085
p4297
aV0000000000000086
p4298
aV0000000000000087
p4299
aV0000000000000088
p4300
aV0000000000000089
p4301
aV0000000000000090
p4302
aV0000000000000091
p4303
aV0000000000000092
p4304
aV0000000000000094
p4305
aV0000000000000095
p4306
aV0000000000000096
p4307
aV0000000000000097
p4308
aV0000000000000098
p4309
aV0000000000000099
p4310
aV0000000000000100
p4311
aV0000000000000102
p4312
aV0000000000000103
p4313
aV0000000000000104
p4314
aV0000000000000105
p4315
aV0000000000000106
p4316
aV0000000000000107
p4317
aV0000000000000108
p4318
aV0000000000000109
p4319
aV0000000000000110
p4320
aV0000000000000111
p4321
aV0000000000000112
p4322
aV0000000000000113
p4323
aV0000000000000114
p4324
aV0000000000000115
p4325
aV0000000000000116
p4326
aV0000000000000117
p4327
aV0000000000000120
p4328
asVjennifer
p4329
(lp4330
V0000000000000031
p4331
asVmuse
p4332
(lp4333
V0000000000000031
p4334
asVarthur
p4335
(lp4336
V0000000000000031
p4337
asVanderson
p4338
(lp4339
V0000000000000031
p4340
asVcentral
p4341
(lp4342
V0000000000000031
p4343
aV0000000000000032
p4344
aV0000000000000033
p4345
aV0000000000000034
p4346
aV0000000000000035
p4347
aV0000000000000036
p4348
aV0000000000000037
p4349
aV0000000000000038
p4350
aV0000000000000039
p4351
aV0000000000000040
p4352
aV0000000000000041
p4353
aV0000000000000042
p4354
aV0000000000000043
p4355
aV0000000000000044
p4356
aV0000000000000045
p4357
aV0000000000000046
p4358
aV0000000000000047
p4359
aV0000000000000048
p4360
aV0000000000000049
p4361
aV0000000000000050
p4362
aV0000000000000051
p4363
aV0000000000000052
p4364
aV0000000000000053
p4365
aV0000000000000054
p4366
aV0000000000000055
p4367
aV0000000000000056
p4368
aV0000000000000057
p4369
aV0000000000000058
p4370
aV0000000000000059
p4371
aV0000000000000060
p4372
aV0000000000000061
p4373
aV0000000000000062
p4374
aV0000000000000063
p4375
aV0000000000000064
p4376
aV0000000000000065
p4377
aV0000000000000066
p4378
aV0000000000000067
p4379
aV0000000000000068
p4380
aV0000000000000069
p4381
aV0000000000000071
p4382
aV0000000000000072
p4383
aV0000000000000073
p4384
aV0000000000000074
p4385
aV0000000000000075
p4386
aV0000000000000076
p4387
aV0000000000000077
p4388
aV0000000000000078
p4389
aV0000000000000079
p4390
aV0000000000000080
p4391
aV0000000000000081
p4392
aV0000000000000083
p4393
aV0000000000000084
p4394
aV0000000000000085
p4395
aV0000000000000086
p4396
aV0000000000000087
p4397
aV0000000000000088
p4398
aV0000000000000090
p4399
aV0000000000000091
p4400
aV0000000000000092
p4401
aV0000000000000094
p4402
aV0000000000000095
p4403
aV0000000000000096
p4404
aV0000000000000097
p4405
aV0000000000000098
p4406
aV0000000000000099
p4407
aV0000000000000100
p4408
aV0000000000000101
p4409
aV0000000000000102
p4410
aV0000000000000103
p4411
aV0000000000000104
p4412
aV0000000000000105
p4413
aV0000000000000106
p4414
aV0000000000000107
p4415
aV0000000000000108
p4416
aV0000000000000109
p4417
aV0000000000000110
p4418
aV0000000000000111
p4419
aV0000000000000112
p4420
aV0000000000000113
p4421
aV0000000000000114
p4422
aV0000000000000115
p4423
aV0000000000000116
p4424
aV0000000000000117
p4425
aV0000000000000118
p4426
aV0000000000000119
p4427
aV0000000000000120
p4428
aV0000000000000121
p4429
aV0000000000000122
p4430
asVchairperson
p4431
(lp4432
V0000000000000031
p4433
aV0000000000000032
p4434
aV0000000000000033
p4435
aV0000000000000034
p4436
aV0000000000000035
p4437
aV0000000000000036
p4438
aV0000000000000037
p4439
aV0000000000000038
p4440
aV0000000000000039
p4441
aV0000000000000040
p4442
aV0000000000000041
p4443
aV0000000000000042
p4444
aV0000000000000043
p4445
aV0000000000000044
p4446
aV0000000000000045
p4447
aV0000000000000046
p4448
aV0000000000000047
p4449
aV0000000000000048
p4450
aV0000000000000049
p4451
aV0000000000000050
p4452
aV0000000000000051
p4453
aV0000000000000052
p4454
aV0000000000000053
p4455
aV0000000000000054
p4456
aV0000000000000055
p4457
aV0000000000000056
p4458
aV0000000000000057
p4459
aV0000000000000058
p4460
aV0000000000000059
p4461
aV0000000000000060
p4462
aV0000000000000061
p4463
aV0000000000000062
p4464
aV0000000000000063
p4465
aV0000000000000064
p4466
aV0000000000000065
p4467
aV0000000000000066
p4468
aV0000000000000067
p4469
aV0000000000000068
p4470
aV0000000000000069
p4471
aV0000000000000070
p4472
aV0000000000000071
p4473
aV0000000000000073
p4474
aV0000000000000074
p4475
aV0000000000000075
p4476
aV0000000000000076
p4477
aV0000000000000077
p4478
aV0000000000000078
p4479
aV0000000000000079
p4480
aV0000000000000080
p4481
aV0000000000000081
p4482
aV0000000000000083
p4483
aV0000000000000084
p4484
aV0000000000000085
p4485
aV0000000000000086
p4486
aV0000000000000087
p4487
aV0000000000000088
p4488
aV0000000000000089
p4489
aV0000000000000090
p4490
aV0000000000000091
p4491
aV0000000000000092
p4492
aV0000000000000094
p4493
aV0000000000000095
p4494
aV0000000000000096
p4495
aV0000000000000097
p4496
aV0000000000000098
p4497
aV0000000000000099
p4498
aV0000000000000100
p4499
aV0000000000000102
p4500
aV0000000000000103
p4501
aV0000000000000104
p4502
aV0000000000000105
p4503
aV0000000000000106
p4504
aV0000000000000107
p4505
aV0000000000000108
p4506
aV0000000000000109
p4507
aV0000000000000110
p4508
aV0000000000000111
p4509
aV0000000000000112
p4510
aV0000000000000113
p4511
aV0000000000000114
p4512
aV0000000000000115
p4513
aV0000000000000116
p4514
aV0000000000000117
p4515
aV0000000000000120
p4516
asVoutlook
p4517
(lp4518
V0000000000000031
p4519
aV0000000000000032
p4520
aV0000000000000034
p4521
aV0000000000000035
p4522
aV0000000000000037
p4523
aV0000000000000041
p4524
aV0000000000000042
p4525
aV0000000000000043
p4526
aV0000000000000044
p4527
aV0000000000000045
p4528
aV0000000000000055
p4529
aV0000000000000058
p4530
aV0000000000000059
p4531
aV0000000000000060
p4532
aV0000000000000061
p4533
aV0000000000000065
p4534
aV0000000000000066
p4535
aV0000000000000067
p4536
aV0000000000000073
p4537
aV0000000000000074
p4538
aV0000000000000080
p4539
aV0000000000000086
p4540
aV0000000000000088
p4541
aV0000000000000090
p4542
aV0000000000000092
p4543
aV0000000000000094
p4544
aV0000000000000095
p4545
aV0000000000000096
p4546
aV0000000000000103
p4547
aV0000000000000105
p4548
aV0000000000000106
p4549
aV0000000000000107
p4550
aV0000000000000111
p4551
aV0000000000000113
p4552
aV0000000000000120
p4553
asVmigration
p4554
(lp4555
V0000000000000031
p4556
aV0000000000000032
p4557
aV0000000000000034
p4558
aV0000000000000035
p4559
aV0000000000000037
p4560
aV0000000000000041
p4561
aV0000000000000042
p4562
aV0000000000000043
p4563
aV0000000000000044
p4564
aV0000000000000045
p4565
aV0000000000000055
p4566
aV0000000000000058
p4567
aV0000000000000059
p4568
aV0000000000000060
p4569
aV0000000000000061
p4570
aV0000000000000065
p4571
aV0000000000000066
p4572
aV0000000000000067
p4573
aV0000000000000073
p4574
aV0000000000000074
p4575
aV0000000000000080
p4576
aV0000000000000086
p4577
aV0000000000000088
p4578
aV0000000000000090
p4579
aV0000000000000092
p4580
aV0000000000000094
p4581
aV0000000000000095
p4582
aV0000000000000096
p4583
aV0000000000000103
p4584
aV0000000000000105
p4585
aV0000000000000106
p4586
aV0000000000000107
p4587
aV0000000000000111
p4588
aV0000000000000113
p4589
aV0000000000000120
p4590
asVteam
p4591
(lp4592
V0000000000000031
p4593
aV0000000000000032
p4594
aV0000000000000034
p4595
aV0000000000000035
p4596
aV0000000000000037
p4597
aV0000000000000041
p4598
aV0000000000000042
p4599
aV0000000000000043
p4600
aV0000000000000044
p4601
aV0000000000000045
p4602
aV0000000000000055
p4603
aV0000000000000058
p4604
aV0000000000000059
p4605
aV0000000000000060
p4606
aV0000000000000061
p4607
aV0000000000000065
p4608
aV0000000000000066
p4609
aV0000000000000067
p4610
aV0000000000000073
p4611
aV0000000000000074
p4612
aV0000000000000080
p4613
aV0000000000000086
p4614
aV0000000000000088
p4615
aV0000000000000090
p4616
aV0000000000000092
p4617
aV0000000000000094
p4618
aV0000000000000095
p4619
aV0000000000000096
p4620
aV0000000000000103
p4621
aV0000000000000105
p4622
aV0000000000000106
p4623
aV0000000000000107
p4624
aV0000000000000111
p4625
aV0000000000000113
p4626
aV0000000000000120
p4627
aV0000000000000122
p4628
asVdetailed
p4629
(lp4630
V0000000000000031
p4631
aV0000000000000032
p4632
aV0000000000000033
p4633
aV0000000000000034
p4634
aV0000000000000035
p4635
aV0000000000000036
p4636
aV0000000000000037
p4637
aV0000000000000038
p4638
aV0000000000000039
p4639
aV0000000000000040
p4640
aV0000000000000041
p4641
aV0000000000000042
p4642
aV0000000000000043
p4643
aV0000000000000044
p4644
aV0000000000000045
p4645
aV0000000000000046
p4646
aV0000000000000047
p4647
aV0000000000000048
p4648
aV0000000000000049
p4649
aV0000000000000050
p4650
aV0000000000000051
p4651
aV0000000000000052
p4652
aV0000000000000053
p4653
aV0000000000000054
p4654
aV0000000000000055
p4655
aV0000000000000056
p4656
aV0000000000000057
p4657
aV0000000000000058
p4658
aV0000000000000059
p4659
aV0000000000000060
p4660
aV0000000000000061
p4661
aV0000000000000062
p4662
aV0000000000000063
p4663
aV0000000000000064
p4664
aV0000000000000065
p4665
aV0000000000000066
p4666
aV0000000000000067
p4667
aV0000000000000068
p4668
aV0000000000000069
p4669
aV0000000000000070
p4670
aV0000000000000071
p4671
aV0000000000000072
p4672
aV0000000000000073
p4673
aV0000000000000074
p4674
aV0000000000000075
p4675
aV0000000000000076
p4676
aV0000000000000077
p4677
aV0000000000000078
p4678
aV0000000000000079
p4679
aV0000000000000080
p4680
aV0000000000000081
p4681
aV0000000000000083
p4682
aV0000000000000084
p4683
aV0000000000000085
p4684
aV0000000000000086
p4685
aV0000000000000087
p4686
aV0000000000000088
p4687
aV0000000000000089
p4688
aV0000000000000090
p4689
aV0000000000000091
p4690
aV0000000000000092
p4691
aV0000000000000094
p4692
aV0000000000000095
p4693
aV0000000000000096
p4694
aV0000000000000097
p4695
aV0000000000000098
p4696
aV0000000000000099
p4697
aV0000000000000100
p4698
aV0000000000000102
p4699
aV0000000000000103
p4700
aV0000000000000104
p4701
aV0000000000000105
p4702
aV0000000000000106
p4703
aV0000000000000107
p4704
aV0000000000000108
p4705
aV0000000000000109
p4706
aV0000000000000110
p4707
aV0000000000000111
p4708
aV0000000000000112
p4709
aV0000000000000113
p4710
aV0000000000000114
p4711
aV0000000000000115
p4712
aV0000000000000116
p4713
aV0000000000000117
p4714
aV0000000000000120
p4715
asVmeet
p4716
(lp4717
V0000000000000032
p4718
aV0000000000000038
p4719
aV0000000000000066
p4720
aV0000000000000067
p4721
aV0000000000000085
p4722
aV0000000000000086
p4723
aV0000000000000088
p4724
aV0000000000000091
p4725
aV0000000000000093
p4726
aV0000000000000109
p4727
aV0000000000000111
p4728
aV0000000000000113
p4729
aV0000000000000116
p4730
asVadmin
p4731
(lp4732
V0000000000000033
p4733
asVluncheon
p4734
(lp4735
V0000000000000033
p4736
aV0000000000000079
p4737
asVhyatt
p4738
(lp4739
V0000000000000033
p4740
asVsteve
p4741
(lp4742
V0000000000000034
p4743
asVgim
p4744
(lp4745
V0000000000000034
p4746
asVinterview
p4747
(lp4748
V0000000000000035
p4749
aV0000000000000040
p4750
aV0000000000000105
p4751
asVshuman
p4752
(lp4753
V0000000000000035
p4754
asVinvitation
p4755
(lp4756
V0000000000000036
p4757
aV0000000000000038
p4758
aV0000000000000039
p4759
aV0000000000000047
p4760
aV0000000000000053
p4761
aV0000000000000057
p4762
aV0000000000000064
p4763
aV0000000000000072
p4764
aV0000000000000084
p4765
aV0000000000000085
p4766
aV0000000000000102
p4767
aV0000000000000104
p4768
aV0000000000000116
p4769
asVshow
p4770
(lp4771
V0000000000000036
p4772
asVtjae
p4773
(lp4774
V0000000000000036
p4775
asVexecutive
p4776
(lp4777
V0000000000000036
p4778
asVreports
p4779
(lp4780
V0000000000000036
p4781
asVrequest
p4782
(lp4783
V0000000000000036
p4784
asVwindows
p4785
(lp4786
V0000000000000037
p4787
asVproject
p4788
(lp4789
V0000000000000037
p4790
aV0000000000000108
p4791
aV0000000000000122
p4792
asVgem
p4793
(lp4794
V0000000000000037
p4795
asVcorry
p4796
(lp4797
V0000000000000037
p4798
asVmitch
p4799
(lp4800
V0000000000000037
p4801
asVed
p4802
(lp4803
V0000000000000037
p4804
asVlloyd
p4805
(lp4806
V0000000000000037
p4807
asVleslie
p4808
(lp4809
V0000000000000037
p4810
asVkim
p4811
(lp4812
V0000000000000037
p4813
asVthresa
p4814
(lp4815
V0000000000000037
p4816
aV0000000000000088
p4817
asVmadhup
p4818
(lp4819
V0000000000000037
p4820
asVheather
p4821
(lp4822
V0000000000000038
p4823
asVjulie
p4824
(lp4825
V0000000000000039
p4826
asVphillips
p4827
(lp4828
V0000000000000039
p4829
asVbachelorette
p4830
(lp4831
V0000000000000039
p4832
asVparty
p4833
(lp4834
V0000000000000039
p4835
asVsamantha
p4836
(lp4837
V0000000000000040
p4838
asVlaw
p4839
(lp4840
V0000000000000040
p4841
asVdoug
p4842
(lp4843
V0000000000000041
p4844
asVsewall
p4845
(lp4846
V0000000000000041
p4847
asVterry
p4848
(lp4849
V0000000000000041
p4850
asVclines
p4851
(lp4852
V0000000000000041
p4853
asVkarima
p4854
(lp4855
V0000000000000042
p4856
asVhusain
p4857
(lp4858
V0000000000000042
p4859
asVenpower
p4860
(lp4861
V0000000000000043
p4862
asVmkm
p4863
(lp4864
V0000000000000043
p4865
asVacademy
p4866
(lp4867
V0000000000000044
p4868
asVawards
p4869
(lp4870
V0000000000000044
p4871
asVpublic
p4872
(lp4873
V0000000000000044
p4874
aV0000000000000077
p4875
asVviewing
p4876
(lp4877
V0000000000000044
p4878
aV0000000000000077
p4879
asVvac
p4880
(lp4881
V0000000000000045
p4882
aV0000000000000074
p4883
asVstructuring
p4884
(lp4885
V0000000000000046
p4886
asVchaun
p4887
(lp4888
V0000000000000046
p4889
asVroberts
p4890
(lp4891
V0000000000000046
p4892
asVhappy
p4893
(lp4894
V0000000000000047
p4895
asVmonthly
p4896
(lp4897
V0000000000000048
p4898
asVtesting
p4899
(lp4900
V0000000000000048
p4901
asVclaudia
p4902
(lp4903
V0000000000000048
p4904
asVrussell
p4905
(lp4906
V0000000000000049
p4907
aV0000000000000050
p4908
aV0000000000000055
p4909
aV0000000000000063
p4910
aV0000000000000076
p4911
aV0000000000000115
p4912
asVtalking
p4913
(lp4914
V0000000000000051
p4915
asVaudit
p4916
(lp4917
V0000000000000052
p4918
asVopening
p4919
(lp4920
V0000000000000052
p4921
asVmtg
p4922
(lp4923
V0000000000000052
p4924
aV0000000000000075
p4925
aV0000000000000081
p4926
aV0000000000000083
p4927
aV0000000000000087
p4928
aV0000000000000096
p4929
aV0000000000000108
p4930
asVnicole
p4931
(lp4932
V0000000000000052
p4933
asVmendez
p4934
(lp4935
V0000000000000052
p4936
asVcindy
p4937
(lp4938
V0000000000000053
p4939
asVwisemiller
p4940
(lp4941
V0000000000000053
p4942
asVturkeyfest
p4943
(lp4944
V0000000000000054
p4945
asVvideo
p4946
(lp4947
V0000000000000056
p4948
aV0000000000000101
p4949
asVconferencing
p4950
(lp4951
V0000000000000056
p4952
asVavistar
p4953
(lp4954
V0000000000000056
p4955
asVbrian
p4956
(lp4957
V0000000000000056
p4958
asVwoods
p4959
(lp4960
V0000000000000056
p4961
asVpatti
p4962
(lp4963
V0000000000000056
p4964
asVthompson
p4965
(lp4966
V0000000000000056
p4967
asVlunch
p4968
(lp4969
V0000000000000057
p4970
aV0000000000000060
p4971
aV0000000000000091
p4972
aV0000000000000097
p4973
asVjenn
p4974
(lp4975
V0000000000000057
p4976
asVportland
p4977
(lp4978
V0000000000000058
p4979
aV0000000000000068
p4980
aV0000000000000078
p4981
aV0000000000000080
p4982
aV0000000000000103
p4983
asVconference
p4984
(lp4985
V0000000000000059
p4986
asVir
p4987
(lp4988
V0000000000000059
p4989
asVwest
p4990
(lp4991
V0000000000000059
p4992
asVcarrabba
p4993
(lp4994
V0000000000000060
p4995
asVhector
p4996
(lp4997
V0000000000000061
p4998
asVval
p4999
(lp5000
V0000000000000062
p5001
asVcasey
p5002
(lp5003
V0000000000000062
p5004
aV0000000000000109
p5005
asVkelley
p5006
(lp5007
V0000000000000062
p5008
asVoperational
p5009
(lp5010
V0000000000000064
p5011
aV0000000000000079
p5012
aV0000000000000084
p5013
aV0000000000000102
p5014
asVrisk
p5015
(lp5016
V0000000000000064
p5017
aV0000000000000066
p5018
aV0000000000000079
p5019
aV0000000000000084
p5020
aV0000000000000095
p5021
aV0000000000000102
p5022
asVforum
p5023
(lp5024
V0000000000000064
p5025
aV0000000000000079
p5026
aV0000000000000084
p5027
aV0000000000000102
p5028
asVkathy
p5029
(lp5030
V0000000000000065
p5031
asVdinner
p5032
(lp5033
V0000000000000065
p5034
asVbuca
p5035
(lp5036
V0000000000000065
p5037
asVdi
p5038
(lp5039
V0000000000000065
p5040
asVbepo
p5041
(lp5042
V0000000000000065
p5043
asVbuffalo
p5044
(lp5045
V0000000000000065
p5046
asVspeedway
p5047
(lp5048
V0000000000000065
p5049
asVshona
p5050
(lp5051
V0000000000000066
p5052
asVvlad
p5053
(lp5054
V0000000000000066
p5055
asVre
p5056
(lp5057
V0000000000000066
p5058
aV0000000000000067
p5059
aV0000000000000086
p5060
aV0000000000000088
p5061
aV0000000000000093
p5062
aV0000000000000109
p5063
asVreporting
p5064
(lp5065
V0000000000000066
p5066
asVsally
p5067
(lp5068
V0000000000000067
p5069
aV0000000000000091
p5070
aV0000000000000096
p5071
asVexposure
p5072
(lp5073
V0000000000000067
p5074
asVtom
p5075
(lp5076
V0000000000000069
p5077
asVchapman
p5078
(lp5079
V0000000000000069
p5080
asVzeta
p5081
(lp5082
V0000000000000070
p5083
asVtau
p5084
(lp5085
V0000000000000070
p5086
asValpha
p5087
(lp5088
V0000000000000070
p5089
asVreunion
p5090
(lp5091
V0000000000000070
p5092
asVmail
p5093
(lp5094
V0000000000000071
p5095
asVmortgage
p5096
(lp5097
V0000000000000071
p5098
asVdelete
p5099
(lp5100
V0000000000000072
p5101
aV0000000000000084
p5102
asVrepeat
p5103
(lp5104
V0000000000000072
p5105
aV0000000000000084
p5106
asVparent
p5107
(lp5108
V0000000000000072
p5109
aV0000000000000084
p5110
asVholiday
p5111
(lp5112
V0000000000000072
p5113
aV0000000000000090
p5114
aV0000000000000095
p5115
asVtentative
p5116
(lp5117
V0000000000000072
p5118
asVdates
p5119
(lp5120
V0000000000000072
p5121
aV0000000000000084
p5122
asVscott
p5123
(lp5124
V0000000000000073
p5125
asVmills
p5126
(lp5127
V0000000000000073
p5128
asVweekly
p5129
(lp5130
V0000000000000075
p5131
aV0000000000000081
p5132
aV0000000000000096
p5133
asVstaff
p5134
(lp5135
V0000000000000075
p5136
aV0000000000000081
p5137
aV0000000000000083
p5138
asVangela
p5139
(lp5140
V0000000000000077
p5141
aV0000000000000122
p5142
asVena
p5143
(lp5144
V0000000000000083
p5145
aV0000000000000093
p5146
asVet
p5147
(lp5148
V0000000000000086
p5149
asVal
p5150
(lp5151
V0000000000000086
p5152
asVposition
p5153
(lp5154
V0000000000000086
p5155
asVmanagers
p5156
(lp5157
V0000000000000086
p5158
asVrebecca
p5159
(lp5160
V0000000000000088
p5161
asVui
p5162
(lp5163
V0000000000000088
p5164
asVeaster
p5165
(lp5166
V0000000000000089
p5167
asVlobby
p5168
(lp5169
V0000000000000091
p5170
asVdr
p5171
(lp5172
V0000000000000092
p5173
aV0000000000000107
p5174
asVappt
p5175
(lp5176
V0000000000000092
p5177
aV0000000000000107
p5178
asVrenee
p5179
(lp5180
V0000000000000093
p5181
asVtrey
p5182
(lp5183
V0000000000000093
p5184
asVhardy
p5185
(lp5186
V0000000000000093
p5187
asVgeorganne
p5188
(lp5189
V0000000000000093
p5190
asVhodges
p5191
(lp5192
V0000000000000093
p5193
asVschedule
p5194
(lp5195
V0000000000000093
p5196
asVjennie
p5197
(lp5198
V0000000000000094
p5199
asVtown
p5200
(lp5201
V0000000000000094
p5202
aV0000000000000099
p5203
asVbi
p5204
(lp5205
V0000000000000096
p5206
asVstrategic
p5207
(lp5208
V0000000000000097
p5209
asVflight
p5210
(lp5211
V0000000000000098
p5212
aV0000000000000114
p5213
asVstockholm
p5214
(lp5215
V0000000000000098
p5216
asVwednesday
p5217
(lp5218
V0000000000000101
p5219
asVaugust
p5220
(lp5221
V0000000000000101
p5222
asVgmt
p5223
(lp5224
V0000000000000101
p5225
aV0000000000000118
p5226
aV0000000000000119
p5227
aV0000000000000121
p5228
aV0000000000000122
p5229
asVcanada
p5230
(lp5231
V0000000000000101
p5232
aV0000000000000118
p5233
aV0000000000000119
p5234
aV0000000000000121
p5235
aV0000000000000122
p5236
asVconf
p5237
(lp5238
V0000000000000101
p5239
asVkicked
p5240
(lp5241
V0000000000000101
p5242
asVrare
p5243
(lp5244
V0000000000000101
p5245
asVwanted
p5246
(lp5247
V0000000000000101
p5248
asVanyway
p5249
(lp5250
V0000000000000101
p5251
asVsonia
p5252
(lp5253
V0000000000000101
p5254
asVvar
p5255
(lp5256
V0000000000000106
p5257
asVreport
p5258
(lp5259
V0000000000000106
p5260
asVdentist
p5261
(lp5262
V0000000000000107
p5263
asVmcclellan
p5264
(lp5265
V0000000000000107
p5266
asVblanca
p5267
(lp5268
V0000000000000108
p5269
asVbeth
p5270
(lp5271
V0000000000000108
p5272
asVapollo
p5273
(lp5274
V0000000000000108
p5275
asVdonnie
p5276
(lp5277
V0000000000000109
p5278
asVandrea
p5279
(lp5280
V0000000000000109
p5281
asVhorseshoe
p5282
(lp5283
V0000000000000110
p5284
asVbay
p5285
(lp5286
V0000000000000110
p5287
asVduong
p5288
(lp5289
V0000000000000111
p5290
asVluu
p5291
(lp5292
V0000000000000111
p5293
asVcompetitive
p5294
(lp5295
V0000000000000112
p5296
asVmarkets
p5297
(lp5298
V0000000000000112
p5299
asVassessment
p5300
(lp5301
V0000000000000112
p5302
asVzhiyong
p5303
(lp5304
V0000000000000113
p5305
asVsanjay
p5306
(lp5307
V0000000000000113
p5308
asVjenny
p5309
(lp5310
V0000000000000113
p5311
asVtim
p5312
(lp5313
V0000000000000116
p5314
asVgeorgeann
p5315
(lp5316
V0000000000000118
p5317
aV0000000000000121
p5318
asVtuesday
p5319
(lp5320
V0000000000000121
p5321
asVdavid
p5322
(lp5323
V0000000000000122
p5324
asVoliver
p5325
(lp5326
V0000000000000122
p5327
asVmentioned
p5328
(lp5329
V0000000000000122
p5330
asVable
p5331
(lp5332
V0000000000000122
p5333
asVanswer
p5334
(lp5335
V0000000000000122
p5336
asVhandle
p5337
(lp5338
V0000000000000122
p5339
asVtolling
p5340
(lp5341
V0000000000000122
p5342
asVrelation
p5343
(lp5344
V0000000000000122
p5345
asVhandling
p5346
(lp5347
V0000000000000122
p5348
asVanalyst
p5349
(lp5350
V0000000000000122
p5351
asVeim
p5352
(lp5353
V0000000000000122
p5354
asVlogistics
p5355
(lp5356
V0000000000000122
p5357
asVrelate
p5358
(lp5359
V0000000000000122
p5360
asVsteel
p5361
(lp5362
V0000000000000122
p5363
asVindustry
p5364
(lp5365
V0000000000000122
p5366
asVwork
p5367
(lp5368
V0000000000000122
p5369
asVreschedule
p5370
(lp5371
V0000000000000122
p5372
as.